
keyboard_test.elf:     file format elf32-littlenios2
keyboard_test.elf
architecture: nios2:r1, flags 0x00000112:
EXEC_P, HAS_SYMS, D_PAGED
start address 0x08000230

Program Header:
    LOAD off    0x00001000 vaddr 0x08000000 paddr 0x08000000 align 2**12
         filesz 0x00000020 memsz 0x00000020 flags r-x
    LOAD off    0x00001020 vaddr 0x08000020 paddr 0x08000020 align 2**12
         filesz 0x0001433c memsz 0x0001433c flags r-x
    LOAD off    0x0001535c vaddr 0x0801435c paddr 0x08015e90 align 2**12
         filesz 0x00001b34 memsz 0x00001b34 flags rw-
    LOAD off    0x000179c4 vaddr 0x080179c4 paddr 0x080179c4 align 2**12
         filesz 0x00000000 memsz 0x000002e8 flags rw-

Sections:
Idx Name          Size      VMA       LMA       File off  Algn
  0 .entry        00000020  08000000  08000000  00001000  2**5
                  CONTENTS, ALLOC, LOAD, READONLY, CODE
  1 .exceptions   00000210  08000020  08000020  00001020  2**2
                  CONTENTS, ALLOC, LOAD, READONLY, CODE
  2 .text         0001256c  08000230  08000230  00001230  2**2
                  CONTENTS, ALLOC, LOAD, READONLY, CODE
  3 .rodata       00001bc0  0801279c  0801279c  0001379c  2**2
                  CONTENTS, ALLOC, LOAD, READONLY, DATA
  4 .rwdata       00001b34  0801435c  08015e90  0001535c  2**2
                  CONTENTS, ALLOC, LOAD, DATA, SMALL_DATA
  5 .bss          000002e8  080179c4  080179c4  000179c4  2**2
                  ALLOC, SMALL_DATA
  6 .sdram        00000000  08017cac  08017cac  00016e90  2**0
                  CONTENTS
  7 .comment      00000023  00000000  00000000  00016e90  2**0
                  CONTENTS, READONLY
  8 .debug_aranges 00001048  00000000  00000000  00016eb8  2**3
                  CONTENTS, READONLY, DEBUGGING
  9 .debug_info   0002719d  00000000  00000000  00017f00  2**0
                  CONTENTS, READONLY, DEBUGGING
 10 .debug_abbrev 00009f6b  00000000  00000000  0003f09d  2**0
                  CONTENTS, READONLY, DEBUGGING
 11 .debug_line   0000c54a  00000000  00000000  00049008  2**0
                  CONTENTS, READONLY, DEBUGGING
 12 .debug_frame  000028c4  00000000  00000000  00055554  2**2
                  CONTENTS, READONLY, DEBUGGING
 13 .debug_str    000043c0  00000000  00000000  00057e18  2**0
                  CONTENTS, READONLY, DEBUGGING
 14 .debug_loc    00017b11  00000000  00000000  0005c1d8  2**0
                  CONTENTS, READONLY, DEBUGGING
 15 .debug_alt_sim_info 00000040  00000000  00000000  00073cec  2**2
                  CONTENTS, READONLY, DEBUGGING
 16 .debug_ranges 00001930  00000000  00000000  00073d30  2**3
                  CONTENTS, READONLY, DEBUGGING
 17 .thread_model 00000003  00000000  00000000  00078f82  2**0
                  CONTENTS, READONLY
 18 .cpu          0000000c  00000000  00000000  00078f85  2**0
                  CONTENTS, READONLY
 19 .qsys         00000001  00000000  00000000  00078f91  2**0
                  CONTENTS, READONLY
 20 .simulation_enabled 00000001  00000000  00000000  00078f92  2**0
                  CONTENTS, READONLY
 21 .sysid_hash   00000004  00000000  00000000  00078f93  2**0
                  CONTENTS, READONLY
 22 .sysid_base   00000004  00000000  00000000  00078f97  2**0
                  CONTENTS, READONLY
 23 .sysid_time   00000004  00000000  00000000  00078f9b  2**0
                  CONTENTS, READONLY
 24 .stderr_dev   0000000b  00000000  00000000  00078f9f  2**0
                  CONTENTS, READONLY
 25 .stdin_dev    0000000b  00000000  00000000  00078faa  2**0
                  CONTENTS, READONLY
 26 .stdout_dev   0000000b  00000000  00000000  00078fb5  2**0
                  CONTENTS, READONLY
 27 .sopc_system_name 0000000f  00000000  00000000  00078fc0  2**0
                  CONTENTS, READONLY
 28 .quartus_project_dir 0000001a  00000000  00000000  00078fcf  2**0
                  CONTENTS, READONLY
 29 .jdi          00013005  00000000  00000000  00078fe9  2**0
                  CONTENTS, READONLY
 30 .sopcinfo     0008dc8d  00000000  00000000  0008bfee  2**0
                  CONTENTS, READONLY
SYMBOL TABLE:
08000000 l    d  .entry	00000000 .entry
08000020 l    d  .exceptions	00000000 .exceptions
08000230 l    d  .text	00000000 .text
0801279c l    d  .rodata	00000000 .rodata
0801435c l    d  .rwdata	00000000 .rwdata
080179c4 l    d  .bss	00000000 .bss
08017cac l    d  .sdram	00000000 .sdram
00000000 l    d  .comment	00000000 .comment
00000000 l    d  .debug_aranges	00000000 .debug_aranges
00000000 l    d  .debug_info	00000000 .debug_info
00000000 l    d  .debug_abbrev	00000000 .debug_abbrev
00000000 l    d  .debug_line	00000000 .debug_line
00000000 l    d  .debug_frame	00000000 .debug_frame
00000000 l    d  .debug_str	00000000 .debug_str
00000000 l    d  .debug_loc	00000000 .debug_loc
00000000 l    d  .debug_alt_sim_info	00000000 .debug_alt_sim_info
00000000 l    d  .debug_ranges	00000000 .debug_ranges
00000000 l    df *ABS*	00000000 ../keyboard_test_bsp//obj/HAL/src/crt0.o
08000268 l       .text	00000000 alt_after_alt_main
00000000 l    df *ABS*	00000000 alt_irq_handler.c
00000000 l    df *ABS*	00000000 alt_instruction_exception_entry.c
00000000 l    df *ABS*	00000000 hello_world.c
08015e38 l     O .rwdata	00000004 vga_ctrl
00000000 l    df *ABS*	00000000 map_print.c
08015e3c l     O .rwdata	00000004 vga_ctrl
00000000 l    df *ABS*	00000000 usb_input.c
08015e40 l     O .rwdata	00000001 addr
00000000 l    df *ABS*	00000000 HID.c
00000000 l    df *ABS*	00000000 MAX3421E.c
00000000 l    df *ABS*	00000000 transfer.c
080179d4 l     O .bss	00000004 usb_delay.2608
080179d8 l     O .bss	00000001 tmp_addr.2609
00000000 l    df *ABS*	00000000 lib2-divmod.c
00000000 l    df *ABS*	00000000 lib2-mul.c
00000000 l    df *ABS*	00000000 memcpy.c
00000000 l    df *ABS*	00000000 printf.c
00000000 l    df *ABS*	00000000 putchar.c
00000000 l    df *ABS*	00000000 puts.c
00000000 l    df *ABS*	00000000 strlen.c
00000000 l    df *ABS*	00000000 vfprintf.c
080140a2 l     O .rodata	00000010 zeroes.4404
08005158 l     F .text	000000bc __sbprintf
080140b2 l     O .rodata	00000010 blanks.4403
00000000 l    df *ABS*	00000000 wsetup.c
00000000 l    df *ABS*	00000000 dtoa.c
08005368 l     F .text	00000228 quorem
00000000 l    df *ABS*	00000000 fflush.c
00000000 l    df *ABS*	00000000 findfp.c
08006ec0 l     F .text	00000008 __fp_unlock
08006ed4 l     F .text	0000019c __sinit.part.1
08007070 l     F .text	00000008 __fp_lock
00000000 l    df *ABS*	00000000 mallocr.c
00000000 l    df *ABS*	00000000 fvwrite.c
00000000 l    df *ABS*	00000000 fwalk.c
00000000 l    df *ABS*	00000000 impure.c
0801438c l     O .rwdata	00000424 impure_data
00000000 l    df *ABS*	00000000 locale.c
080147d0 l     O .rwdata	00000020 lc_ctype_charset
080147b0 l     O .rwdata	00000020 lc_message_charset
080147f0 l     O .rwdata	00000038 lconv
00000000 l    df *ABS*	00000000 makebuf.c
00000000 l    df *ABS*	00000000 mallocr.c
00000000 l    df *ABS*	00000000 memchr.c
00000000 l    df *ABS*	00000000 memmove.c
00000000 l    df *ABS*	00000000 memset.c
00000000 l    df *ABS*	00000000 mprec.c
080140e4 l     O .rodata	0000000c p05.2768
00000000 l    df *ABS*	00000000 putc.c
00000000 l    df *ABS*	00000000 mallocr.c
00000000 l    df *ABS*	00000000 s_fpclassify.c
00000000 l    df *ABS*	00000000 sbrkr.c
00000000 l    df *ABS*	00000000 stdio.c
00000000 l    df *ABS*	00000000 strcmp.c
00000000 l    df *ABS*	00000000 vfprintf.c
0800a564 l     F .text	000000fc __sprint_r.part.0
08014208 l     O .rodata	00000010 zeroes.4349
0800bba0 l     F .text	000000bc __sbprintf
08014218 l     O .rodata	00000010 blanks.4348
00000000 l    df *ABS*	00000000 wbuf.c
00000000 l    df *ABS*	00000000 writer.c
00000000 l    df *ABS*	00000000 closer.c
00000000 l    df *ABS*	00000000 mallocr.c
00000000 l    df *ABS*	00000000 fclose.c
00000000 l    df *ABS*	00000000 fputwc.c
00000000 l    df *ABS*	00000000 fstatr.c
00000000 l    df *ABS*	00000000 int_errno.c
00000000 l    df *ABS*	00000000 isattyr.c
00000000 l    df *ABS*	00000000 lseekr.c
00000000 l    df *ABS*	00000000 readr.c
00000000 l    df *ABS*	00000000 wcrtomb.c
00000000 l    df *ABS*	00000000 wctomb_r.c
00000000 l    df *ABS*	00000000 libgcc2.c
00000000 l    df *ABS*	00000000 libgcc2.c
00000000 l    df *ABS*	00000000 adddf3.c
00000000 l    df *ABS*	00000000 divdf3.c
00000000 l    df *ABS*	00000000 eqdf2.c
00000000 l    df *ABS*	00000000 gedf2.c
00000000 l    df *ABS*	00000000 ledf2.c
00000000 l    df *ABS*	00000000 muldf3.c
00000000 l    df *ABS*	00000000 subdf3.c
00000000 l    df *ABS*	00000000 fixdfsi.c
00000000 l    df *ABS*	00000000 floatsidf.c
00000000 l    df *ABS*	00000000 floatunsidf.c
00000000 l    df *ABS*	00000000 libgcc2.c
00000000 l    df *ABS*	00000000 libgcc2.c
00000000 l    df *ABS*	00000000 alt_close.c
0800fa0c l     F .text	0000003c alt_get_errno
00000000 l    df *ABS*	00000000 alt_dev.c
0800fb20 l     F .text	0000002c alt_dev_null_write
00000000 l    df *ABS*	00000000 alt_errno.c
00000000 l    df *ABS*	00000000 alt_fstat.c
0800fb4c l     F .text	0000003c alt_get_errno
00000000 l    df *ABS*	00000000 alt_isatty.c
0800fc40 l     F .text	0000003c alt_get_errno
00000000 l    df *ABS*	00000000 alt_load.c
0800fd28 l     F .text	00000068 alt_load_section
00000000 l    df *ABS*	00000000 alt_lseek.c
0800fe14 l     F .text	0000003c alt_get_errno
00000000 l    df *ABS*	00000000 alt_main.c
00000000 l    df *ABS*	00000000 alt_malloc_lock.c
00000000 l    df *ABS*	00000000 alt_printf.c
00000000 l    df *ABS*	00000000 alt_putchar.c
00000000 l    df *ABS*	00000000 alt_read.c
08010258 l     F .text	0000003c alt_get_errno
00000000 l    df *ABS*	00000000 alt_release_fd.c
00000000 l    df *ABS*	00000000 alt_sbrk.c
08015e80 l     O .rwdata	00000004 heap_end
00000000 l    df *ABS*	00000000 alt_tick.c
00000000 l    df *ABS*	00000000 alt_usleep.c
00000000 l    df *ABS*	00000000 alt_write.c
080106a0 l     F .text	0000003c alt_get_errno
00000000 l    df *ABS*	00000000 alt_sys_init.c
080107dc l     F .text	00000034 alt_dev_reg
08014dd8 l     O .rwdata	00001060 jtag_uart_0
00000000 l    df *ABS*	00000000 altera_avalon_jtag_uart_fd.c
00000000 l    df *ABS*	00000000 altera_avalon_jtag_uart_init.c
08010ad0 l     F .text	0000020c altera_avalon_jtag_uart_irq
08010cdc l     F .text	000000a0 altera_avalon_jtag_uart_timeout
00000000 l    df *ABS*	00000000 altera_avalon_jtag_uart_ioctl.c
00000000 l    df *ABS*	00000000 altera_avalon_jtag_uart_read.c
00000000 l    df *ABS*	00000000 altera_avalon_jtag_uart_write.c
00000000 l    df *ABS*	00000000 altera_avalon_spi.c
00000000 l    df *ABS*	00000000 altera_avalon_timer_sc.c
08011510 l     F .text	00000078 alt_avalon_timer_sc_irq
00000000 l    df *ABS*	00000000 alt_alarm_start.c
00000000 l    df *ABS*	00000000 alt_busy_sleep.c
00000000 l    df *ABS*	00000000 alt_dcache_flush_all.c
00000000 l    df *ABS*	00000000 alt_dev_llist_insert.c
080118a8 l     F .text	0000003c alt_get_errno
00000000 l    df *ABS*	00000000 alt_do_ctors.c
00000000 l    df *ABS*	00000000 alt_do_dtors.c
00000000 l    df *ABS*	00000000 alt_icache_flush_all.c
00000000 l    df *ABS*	00000000 alt_iic.c
00000000 l    df *ABS*	00000000 alt_iic_isr_register.c
00000000 l    df *ABS*	00000000 alt_io_redirect.c
08011d08 l     F .text	000000e4 alt_open_fd
00000000 l    df *ABS*	00000000 alt_irq_vars.c
00000000 l    df *ABS*	00000000 alt_open.c
08011e68 l     F .text	0000003c alt_get_errno
08011ea4 l     F .text	000000ec alt_file_locked
00000000 l    df *ABS*	00000000 altera_nios2_gen2_irq.c
00000000 l    df *ABS*	00000000 alt_find_dev.c
00000000 l    df *ABS*	00000000 alt_find_file.c
00000000 l    df *ABS*	00000000 alt_get_fd.c
00000000 l    df *ABS*	00000000 atexit.c
00000000 l    df *ABS*	00000000 exit.c
00000000 l    df *ABS*	00000000 memcmp.c
00000000 l    df *ABS*	00000000 __atexit.c
00000000 l    df *ABS*	00000000 __call_atexit.c
00000000 l    df *ABS*	00000000 alt_exit.c
08017a10 g     O .bss	00000004 alt_instruction_exception_handler
08002cdc g     F .text	00000018 putchar
08009a40 g     F .text	00000074 _mprec_log10
08009b2c g     F .text	0000008c __any_on
0800c2ac g     F .text	00000054 _isatty_r
080140f0 g     O .rodata	00000028 __mprec_tinytens
0800ff2c g     F .text	0000007c alt_main
08015e44 g     O .rwdata	00000008 ctrl_xfers
08002cf4 g     F .text	000000c0 _puts_r
08017bac g     O .bss	00000100 alt_irq
0800c300 g     F .text	00000060 _lseek_r
080020f8 g     F .text	00000644 USB_Task
08015e90 g       *ABS*	00000000 __flash_rwdata_start
0800e3e4 g     F .text	00000088 .hidden __eqdf2
08000334 g     F .text	00000160 mapWrite
08017cac g       *ABS*	00000000 __alt_heap_start
08002c98 g     F .text	0000003c printf
0800c3c0 g     F .text	0000009c _wcrtomb_r
08001268 g     F .text	00000088 kbdPoll
0800a424 g     F .text	0000005c __sseek
08007220 g     F .text	00000010 __sinit
0800bc5c g     F .text	00000140 __swbuf_r
08007cf4 g     F .text	0000007c _setlocale_r
08007078 g     F .text	00000078 __sfmoreglue
0800ffcc g     F .text	00000024 __malloc_unlock
08000494 g     F .text	000001f0 GetDriverandReport
0800887c g     F .text	0000015c memmove
08007208 g     F .text	00000018 _cleanup
08008b00 g     F .text	000000a8 _Balloc
080013bc g     F .text	000000a0 MAXreg_wr
0801435c g     O .rwdata	00000030 ClientDriverTable
0800e46c g     F .text	000000dc .hidden __gtdf2
080120ec g     F .text	00000024 altera_nios2_gen2_irq_init
0800273c g     F .text	0000002c MSDProbe
08000000 g     F .entry	0000000c __reset
08001bf8 g     F .text	000000e8 XferCtrlData
08000020 g       *ABS*	00000000 __flash_exceptions_start
08017a14 g     O .bss	00000010 hid_ep
0800c250 g     F .text	0000005c _fstat_r
080179f4 g     O .bss	00000004 errno
0800a3a0 g     F .text	00000008 __seofread
080179fc g     O .bss	00000004 alt_argv
0801de38 g       *ABS*	00000000 _gp
08010670 g     F .text	00000030 usleep
08001534 g     F .text	00000090 MAXreg_rd
08014c58 g     O .rwdata	00000180 alt_fd_list
080011a0 g     F .text	00000040 HID_init
08002cd4 g     F .text	00000008 _putchar_r
08012110 g     F .text	00000090 alt_find_dev
08002b20 g     F .text	00000148 memcpy
08006ec8 g     F .text	0000000c _cleanup_r
0800f824 g     F .text	000000dc .hidden __floatsidf
08011dec g     F .text	0000007c alt_io_redirect
0800e548 g     F .text	000000f4 .hidden __ltdf2
0801279c g       *ABS*	00000000 __DTOR_END__
08002db4 g     F .text	00000014 puts
0801236c g     F .text	0000009c alt_exception_cause_generated_bad_addr
0800a284 g     F .text	00000074 __fpclassifyd
0800999c g     F .text	000000a4 __ratio
0800bb84 g     F .text	0000001c __vfiprintf_internal
08010ed4 g     F .text	0000021c altera_avalon_jtag_uart_read
08002c68 g     F .text	00000030 _printf_r
08002a3c g     F .text	00000064 .hidden __udivsi3
0800fc7c g     F .text	000000ac isatty
08014140 g     O .rodata	000000c8 __mprec_tens
08007d70 g     F .text	0000000c __locale_charset
080179f0 g     O .bss	00000004 __malloc_top_pad
08015e4c g     O .rwdata	00000001 usb_task_state
08015e58 g     O .rwdata	00000004 __mb_cur_max
08007da0 g     F .text	0000000c _localeconv_r
08008f34 g     F .text	0000003c __i2b
080076a4 g     F .text	000004c8 __sfvwrite_r
0800a2f8 g     F .text	00000054 _sbrk_r
0800c360 g     F .text	00000060 _read_r
080018b0 g     F .text	00000094 MAX3421E_init
08000684 g     F .text	00000078 setKeycode
08015e78 g     O .rwdata	00000004 alt_max_fd
0800bf44 g     F .text	000000f0 _fclose_r
08006e90 g     F .text	00000030 fflush
080179ec g     O .bss	00000004 __malloc_max_sbrked_mem
0800d168 g     F .text	000008ac .hidden __adddf3
08009744 g     F .text	0000010c __b2d
0800cba4 g     F .text	000005c4 .hidden __umoddi3
0800fe50 g     F .text	000000dc lseek
08015e50 g     O .rwdata	00000004 _global_impure_ptr
08009d20 g     F .text	00000564 _realloc_r
08017cac g       *ABS*	00000000 __bss_end
08011c18 g     F .text	000000f0 alt_iic_isr_register
08010568 g     F .text	00000108 alt_tick
0800c5a8 g     F .text	000005fc .hidden __udivdi3
0800c1ac g     F .text	00000024 _fputwc_r
08014118 g     O .rodata	00000028 __mprec_bigtens
08008d18 g     F .text	00000104 __s2b
0800f900 g     F .text	000000a8 .hidden __floatunsidf
08009484 g     F .text	00000060 __mcmp
08007240 g     F .text	00000018 __fp_lock_all
08011bcc g     F .text	0000004c alt_ic_irq_enabled
080104cc g     F .text	0000009c alt_alarm_stop
08017a0c g     O .bss	00000004 alt_irq_active
08002804 g     F .text	0000002c DummyProbe
080000fc g     F .exceptions	000000d4 alt_irq_handler
08014c30 g     O .rwdata	00000028 alt_dev_null
080011e0 g     F .text	00000088 mousePoll
08001704 g     F .text	00000024 Vbus_power
08011888 g     F .text	00000020 alt_dcache_flush_all
08008e1c g     F .text	00000068 __hi0bits
0800f7a4 g     F .text	00000080 .hidden __fixdfsi
08015e90 g       *ABS*	00000000 __ram_rwdata_end
08015e70 g     O .rwdata	00000008 alt_dev_list
080106dc g     F .text	00000100 write
08009bb8 g     F .text	000000a0 _putc_r
0801435c g       *ABS*	00000000 __ram_rodata_end
080179d9 g     O .bss	00000001 usb_error
0800fb88 g     F .text	000000b8 fstat
080002e4 g     F .text	00000050 mapClr
0800e548 g     F .text	000000f4 .hidden __ledf2
080091fc g     F .text	00000140 __pow5mult
0800a678 g     F .text	0000150c ___vfiprintf_internal_r
080179e4 g     O .bss	00000004 __nlocale_changed
08002aa0 g     F .text	00000058 .hidden __umodsi3
08017cac g       *ABS*	00000000 end
08010a10 g     F .text	000000c0 altera_avalon_jtag_uart_init
080001d0 g     F .exceptions	00000060 alt_instruction_exception_entry
08001d54 g     F .text	0000017c XferDispatchPkt
0801279c g       *ABS*	00000000 __CTOR_LIST__
0c000000 g       *ABS*	00000000 __alt_stack_pointer
08011588 g     F .text	0000007c alt_avalon_timer_sc_init
0800f9a8 g     F .text	00000064 .hidden __clzsi2
080110f0 g     F .text	00000224 altera_avalon_jtag_uart_write
08007230 g     F .text	00000004 __sfp_lock_acquire
08008798 g     F .text	000000e4 memchr
08002e60 g     F .text	000022dc ___vfprintf_internal_r
08001a78 g     F .text	00000034 MaxGpxHandler
08007394 g     F .text	00000310 _free_r
0800fff0 g     F .text	0000022c alt_printf
08007d7c g     F .text	00000010 __locale_mb_cur_max
080125e8 g     F .text	00000180 __call_exitprocs
080179e0 g     O .bss	00000004 __mlocale_changed
08015e5c g     O .rwdata	00000004 __malloc_sbrk_base
08000230 g     F .text	0000003c _start
08017a04 g     O .bss	00000004 _alt_tick_rate
080015c4 g     F .text	000000a0 MAXbytes_rd
0800933c g     F .text	00000148 __lshift
08011314 g     F .text	000001fc alt_avalon_spi_command
08017a08 g     O .bss	00000004 _alt_nticks
08010294 g     F .text	00000104 read
08010848 g     F .text	00000064 alt_sys_init
08017b64 g     O .bss	00000048 devtable
080124d0 g     F .text	00000118 __register_exitproc
08000d98 g     F .text	00000408 HIDKProbe
08017a24 g     O .bss	00000018 msd_ep
08008f70 g     F .text	0000028c __multiply
08010d7c g     F .text	00000068 altera_avalon_jtag_uart_close
08002060 g     F .text	00000098 USB_init
08002af8 g     F .text	00000028 .hidden __mulsi3
08017a64 g     O .bss	00000100 bigbuf
0801435c g       *ABS*	00000000 __ram_rwdata_start
0801279c g       *ABS*	00000000 __ram_rodata_start
08017a3c g     O .bss	00000028 __malloc_current_mallinfo
080179d0 g     O .bss	00000001 last_usb_task_state
08009850 g     F .text	0000014c __d2b
080179c8 g     O .bss	00000008 dev0ep
080108ac g     F .text	00000060 altera_avalon_jtag_uart_read_fd
080122a8 g     F .text	000000c4 alt_get_fd
08011730 g     F .text	00000158 alt_busy_sleep
08002768 g     F .text	00000038 MSDEventHandler
0800be14 g     F .text	00000054 _close_r
08012454 g     F .text	0000007c memcmp
0801096c g     F .text	00000050 altera_avalon_jtag_uart_close_fd
08017cac g       *ABS*	00000000 __alt_stack_base
080109bc g     F .text	00000054 altera_avalon_jtag_uart_ioctl_fd
08005214 g     F .text	00000154 __swsetup_r
0800da14 g     F .text	000009d0 .hidden __divdf3
080070f0 g     F .text	00000118 __sfp
08009ab4 g     F .text	00000078 __copybits
08014828 g     O .rwdata	00000408 __malloc_av_
0800723c g     F .text	00000004 __sinit_lock_release
080027cc g     F .text	00000038 CDCEventHandler
0800e63c g     F .text	0000086c .hidden __muldf3
08002830 g     F .text	00000038 DummyEventHandler
0800a34c g     F .text	00000054 __sread
080121a0 g     F .text	00000108 alt_find_file
080118e4 g     F .text	000000a4 alt_dev_llist_insert
0800ffa8 g     F .text	00000024 __malloc_lock
0801041c g     F .text	000000b0 sbrk
08006e34 g     F .text	0000005c _fflush_r
0800be68 g     F .text	000000dc _calloc_r
080179c4 g       *ABS*	00000000 __bss_start
08001728 g     F .text	00000188 MAX_busprobe
080179c4 g     O .bss	00000002 hid_device
080089d8 g     F .text	00000128 memset
0800026c g     F .text	00000078 main
08001944 g     F .text	00000068 MAX3421E_Task
08017a00 g     O .bss	00000004 alt_envp
080179e8 g     O .bss	00000004 __malloc_max_total_mem
0801090c g     F .text	00000060 altera_avalon_jtag_uart_write_fd
0800bd9c g     F .text	00000018 __swbuf
080028c0 g     F .text	00000084 ConvUTF8ToStr
0800a480 g     F .text	00000008 __sclose
0c000000 g       *ABS*	00000000 __alt_heap_limit
0800c034 g     F .text	00000014 fclose
08005590 g     F .text	00001688 _dtoa_r
08007f8c g     F .text	0000080c _malloc_r
0800c51c g     F .text	00000030 __ascii_wctomb
08015e7c g     O .rwdata	00000004 alt_errno
08007b6c g     F .text	000000c4 _fwalk
08009c58 g     F .text	000000c8 putc
08002944 g     F .text	00000084 .hidden __divsi3
08001ed0 g     F .text	00000190 XferInTransfer
08007270 g     F .text	00000124 _malloc_trim_r
0801279c g       *ABS*	00000000 __CTOR_END__
080006fc g     F .text	00000294 usb_input
08002888 g     F .text	00000038 GetDevtable
0800a488 g     F .text	000000dc strcmp
0801279c g       *ABS*	00000000 __flash_rodata_start
0801279c g       *ABS*	00000000 __DTOR_LIST__
08001ce0 g     F .text	00000074 XferCtrlND
0800e3e4 g     F .text	00000088 .hidden __nedf2
08001664 g     F .text	000000a0 MAX3421E_reset
08010810 g     F .text	00000038 alt_irq_init
08010398 g     F .text	00000084 alt_release_fd
08014228 g     O .rodata	00000100 .hidden __clz_tab
080179dc g     O .bss	00000004 _PathLocale
08012408 g     F .text	00000014 atexit
0800bdb4 g     F .text	00000060 _write_r
08007dac g     F .text	00000018 setlocale
08015e54 g     O .rwdata	00000004 _impure_ptr
080179f8 g     O .bss	00000004 alt_argc
08006c18 g     F .text	0000021c __sflush_r
080119e8 g     F .text	00000060 _do_dtors
08007d98 g     F .text	00000008 __locale_cjk_lang
0800145c g     F .text	000000d8 MAXbytes_wr
08000020 g       .exceptions	00000000 alt_irq_entry
080096e0 g     F .text	00000064 __ulp
08007258 g     F .text	00000018 __fp_unlock_all
08015e68 g     O .rwdata	00000008 alt_fs_list
080027a0 g     F .text	0000002c CDCProbe
08000020 g       *ABS*	00000000 __ram_exceptions_start
08007dc4 g     F .text	0000000c localeconv
08002868 g     F .text	00000020 GetUsbTaskState
08011a68 g     F .text	00000050 alt_ic_isr_register
08013e08 g     O .rodata	00000010 devclasses
08015e90 g       *ABS*	00000000 _edata
08001328 g     F .text	00000038 HIDKEventHandler
08017cac g       *ABS*	00000000 _end
080019ac g     F .text	000000cc MaxIntHandler
0800c048 g     F .text	00000164 __fputwc
08000230 g       *ABS*	00000000 __ram_exceptions_end
08010de4 g     F .text	000000f0 altera_avalon_jtag_uart_ioctl
08001360 g     F .text	00000034 SPI_init
08011b40 g     F .text	0000008c alt_ic_irq_disable
0800a3a8 g     F .text	0000007c __swrite
08015e60 g     O .rwdata	00000004 __malloc_trim_threshold
08007d8c g     F .text	0000000c __locale_msgcharset
0801241c g     F .text	00000038 exit
08007c30 g     F .text	000000c4 _fwalk_reent
080094e4 g     F .text	000001fc __mdiff
080029c8 g     F .text	00000074 .hidden __modsi3
0c000000 g       *ABS*	00000000 __alt_data_end
08000020 g     F .exceptions	00000000 alt_exception
08007234 g     F .text	00000004 __sfp_lock_release
08000000 g       *ABS*	00000000 __alt_mem_sdram
080012f0 g     F .text	00000038 HIDMEventHandler
08012768 g     F .text	00000034 _exit
08011604 g     F .text	0000012c alt_alarm_start
08007dd0 g     F .text	000001bc __smakebuf_r
08002dc8 g     F .text	00000098 strlen
08011f90 g     F .text	0000015c open
0800e46c g     F .text	000000dc .hidden __gedf2
0801021c g     F .text	0000003c alt_putchar
08015e64 g     O .rwdata	00000004 __wctomb
0800a660 g     F .text	00000018 __sprint_r
08011a48 g     F .text	00000020 alt_icache_flush_all
08015e8c g     O .rwdata	00000004 alt_priority_mask
08011ab8 g     F .text	00000088 alt_ic_irq_enable
0800513c g     F .text	0000001c __vfprintf_internal
08000990 g     F .text	00000408 HIDMProbe
0800c54c g     F .text	0000005c _wctomb_r
08001394 g     F .text	00000028 SPI_wr
0800eea8 g     F .text	000008fc .hidden __subdf3
08008e84 g     F .text	000000b0 __lo0bits
08015e84 g     O .rwdata	00000008 alt_alarm_list
08011988 g     F .text	00000060 _do_ctors
0800c45c g     F .text	000000c0 wcrtomb
0800fa48 g     F .text	000000d8 close
0800fd90 g     F .text	00000084 alt_load
0800c1d0 g     F .text	00000080 fputwc
08007238 g     F .text	00000004 __sinit_lock_acquire
08001aac g     F .text	0000014c XferCtrlReq
08008bd0 g     F .text	00000148 __multadd
08008ba8 g     F .text	00000028 _Bfree



Disassembly of section .entry:

08000000 <__reset>:
 * Jump to the _start entry point in the .text section if reset code
 * is allowed or if optimizing for RTL simulation.
 */
#if defined(ALT_ALLOW_CODE_AT_RESET) || defined(ALT_SIM_OPTIMIZE)
    /* Jump to the _start entry point in the .text section. */
    movhi r1, %hi(_start)
 8000000:	00420034 	movhi	at,2048
    ori r1, r1, %lo(_start)
 8000004:	08408c14 	ori	at,at,560
    jmp r1
 8000008:	0800683a 	jmp	at
	...

Disassembly of section .exceptions:

08000020 <alt_exception>:

#else /* ALT_EXCEPTION_STACK disabled */
        /* 
         * Reserve space on normal stack for registers about to be pushed.
         */
        addi  sp, sp, -76
 8000020:	deffed04 	addi	sp,sp,-76
         * documentation for details).
         *
         * Leave a gap in the stack frame at 4(sp) for the muldiv handler to
         * store zero into.
         */
        stw   ra,  0(sp)
 8000024:	dfc00015 	stw	ra,0(sp)
        stw   r1,   8(sp)
 8000028:	d8400215 	stw	at,8(sp)
        stw   r2,  12(sp)
 800002c:	d8800315 	stw	r2,12(sp)
        stw   r3,  16(sp)
 8000030:	d8c00415 	stw	r3,16(sp)
        stw   r4,  20(sp)
 8000034:	d9000515 	stw	r4,20(sp)
        stw   r5,  24(sp)
 8000038:	d9400615 	stw	r5,24(sp)
        stw   r6,  28(sp)
 800003c:	d9800715 	stw	r6,28(sp)
        stw   r7,  32(sp)
 8000040:	d9c00815 	stw	r7,32(sp)
        rdctl r5, estatus   /* Read early to avoid usage stall */
 8000044:	000b307a 	rdctl	r5,estatus
        stw   r8,  36(sp)
 8000048:	da000915 	stw	r8,36(sp)
        stw   r9,  40(sp)
 800004c:	da400a15 	stw	r9,40(sp)
        stw   r10, 44(sp)
 8000050:	da800b15 	stw	r10,44(sp)
        stw   r11, 48(sp)
 8000054:	dac00c15 	stw	r11,48(sp)
        stw   r12, 52(sp)
 8000058:	db000d15 	stw	r12,52(sp)
        stw   r13, 56(sp)
 800005c:	db400e15 	stw	r13,56(sp)
        stw   r14, 60(sp)
 8000060:	db800f15 	stw	r14,60(sp)
        stw   r15, 64(sp)
 8000064:	dbc01015 	stw	r15,64(sp)
        /*
         * ea-4 contains the address of the instruction being executed
         * when the exception occured. For interrupt exceptions, we will
         * will be re-issue the isntruction. Store it in 72(sp)
         */
        stw   r5,  68(sp)  /* estatus */
 8000068:	d9401115 	stw	r5,68(sp)
        addi  r15, ea, -4  /* instruction that caused exception */
 800006c:	ebffff04 	addi	r15,ea,-4
        stw   r15,  72(sp)
 8000070:	dbc01215 	stw	r15,72(sp)
#else
        /*
         * Test to see if the exception was a software exception or caused 
         * by an external interrupt, and vector accordingly.
         */
        rdctl r4, ipending
 8000074:	0009313a 	rdctl	r4,ipending
        andi  r2, r5, 1
 8000078:	2880004c 	andi	r2,r5,1
        beq   r2, zero, .Lnot_irq
 800007c:	10000326 	beq	r2,zero,800008c <alt_exception+0x6c>
        beq   r4, zero, .Lnot_irq
 8000080:	20000226 	beq	r4,zero,800008c <alt_exception+0x6c>
        /*
         * Now that all necessary registers have been preserved, call 
         * alt_irq_handler() to process the interrupts.
         */

        call alt_irq_handler
 8000084:	80000fc0 	call	80000fc <alt_irq_handler>

        .section .exceptions.irqreturn, "xa"

        br    .Lexception_exit
 8000088:	00000706 	br	80000a8 <alt_exception+0x88>
         * upon completion, so we write ea (address of instruction *after*
         * the one where the exception occured) into 72(sp). The actual
         * instruction that caused the exception is written in r2, which these
         * handlers will utilize.
         */
        stw ea, 72(sp) /* EA is PC+4 so will skip over instruction causing exception */
 800008c:	df401215 	stw	ea,72(sp)
.Lunknown_16bit:
        addi.n r4, r4, 2 /* Need PC+2 to skip over instruction causing exception */
        stw r4, 72(sp)

#else /* CDX is not Enabled and all instructions are 32bits */
        ldw r2, -4(ea) /* Instruction value that caused exception */
 8000090:	e8bfff17 	ldw	r2,-4(ea)
         * debugger is present) or go into an infinite loop since the
         * handling behavior is undefined; in that case we will not return here.
         */

        /* Load exception-causing address as first argument (r4) */
        addi   r4, ea, -4
 8000094:	e93fff04 	addi	r4,ea,-4

        /* Call the instruction-exception entry */
        call   alt_instruction_exception_entry
 8000098:	80001d00 	call	80001d0 <alt_instruction_exception_entry>
         * instruction
         *
         * Return code was 0: Skip. The instruction after the exception is
         * already stored in 72(sp).
         */
        bne   r2, r0, .Lexception_exit
 800009c:	1000021e 	bne	r2,zero,80000a8 <alt_exception+0x88>

        /*
         * Otherwise, modify 72(sp) to re-issue the instruction that caused the
         * exception.
         */
        addi  r15, ea, -4  /* instruction that caused exception */
 80000a0:	ebffff04 	addi	r15,ea,-4
        stw   r15,  72(sp)
 80000a4:	dbc01215 	stw	r15,72(sp)
        /* 
         * Restore the saved registers, so that all general purpose registers 
         * have been restored to their state at the time the interrupt occured.
         */

        ldw   r5,  68(sp)
 80000a8:	d9401117 	ldw	r5,68(sp)
        ldw   ea,  72(sp)  /* This becomes the PC once eret is executed */
 80000ac:	df401217 	ldw	ea,72(sp)
        ldw   ra,   0(sp)
 80000b0:	dfc00017 	ldw	ra,0(sp)

        wrctl estatus, r5
 80000b4:	2801707a 	wrctl	estatus,r5

        ldw   r1,   8(sp)
 80000b8:	d8400217 	ldw	at,8(sp)
        ldw   r2,  12(sp)
 80000bc:	d8800317 	ldw	r2,12(sp)
        ldw   r3,  16(sp)
 80000c0:	d8c00417 	ldw	r3,16(sp)
        ldw   r4,  20(sp)
 80000c4:	d9000517 	ldw	r4,20(sp)
        ldw   r5,  24(sp)
 80000c8:	d9400617 	ldw	r5,24(sp)
        ldw   r6,  28(sp)
 80000cc:	d9800717 	ldw	r6,28(sp)
        ldw   r7,  32(sp)
 80000d0:	d9c00817 	ldw	r7,32(sp)

#if defined(ALT_EXCEPTION_STACK) && defined(ALT_STACK_CHECK)
        ldw   et, %gprel(alt_exception_old_stack_limit)(gp)
#endif

        ldw   r8,  36(sp)
 80000d4:	da000917 	ldw	r8,36(sp)
        ldw   r9,  40(sp)
 80000d8:	da400a17 	ldw	r9,40(sp)
        ldw   r10, 44(sp)
 80000dc:	da800b17 	ldw	r10,44(sp)
        ldw   r11, 48(sp)
 80000e0:	dac00c17 	ldw	r11,48(sp)
        ldw   r12, 52(sp)
 80000e4:	db000d17 	ldw	r12,52(sp)
        ldw   r13, 56(sp)
 80000e8:	db400e17 	ldw	r13,56(sp)
        ldw   r14, 60(sp)
 80000ec:	db800f17 	ldw	r14,60(sp)
        ldw   r15, 64(sp)
 80000f0:	dbc01017 	ldw	r15,64(sp)
        stw   et, %gprel(alt_stack_limit_value)(gp)
        stw   zero, %gprel(alt_exception_old_stack_limit)(gp)
#endif /* ALT_STACK_CHECK */
        ldw   sp,  76(sp)
#else /* ALT_EXCEPTION_STACK disabled */
        addi  sp, sp, 76
 80000f4:	dec01304 	addi	sp,sp,76

        /*
         * Return to the interrupted instruction.
         */

        eret
 80000f8:	ef80083a 	eret

080000fc <alt_irq_handler>:
 * instruction is present if the macro ALT_CI_INTERRUPT_VECTOR defined.
 */

void alt_irq_handler (void) __attribute__ ((section (".exceptions")));
void alt_irq_handler (void)
{
 80000fc:	defff904 	addi	sp,sp,-28
 8000100:	dfc00615 	stw	ra,24(sp)
 8000104:	df000515 	stw	fp,20(sp)
 8000108:	df000504 	addi	fp,sp,20
  
  /*
   * Notify the operating system that we are at interrupt level.
   */ 
  
  ALT_OS_INT_ENTER();
 800010c:	0001883a 	nop
#ifndef NIOS2_EIC_PRESENT
static ALT_INLINE alt_u32 ALT_ALWAYS_INLINE alt_irq_pending (void)
{
  alt_u32 active;

  NIOS2_READ_IPENDING (active);
 8000110:	0005313a 	rdctl	r2,ipending
 8000114:	e0bffe15 	stw	r2,-8(fp)

  return active;
 8000118:	e0bffe17 	ldw	r2,-8(fp)
   * Consider the case where the high priority interupt is asserted during
   * the interrupt entry sequence for a lower priority interrupt to see why
   * this is the case.
   */

  active = alt_irq_pending ();
 800011c:	e0bffb15 	stw	r2,-20(fp)

  do
  {
    i = 0;
 8000120:	e03ffd15 	stw	zero,-12(fp)
    mask = 1;
 8000124:	00800044 	movi	r2,1
 8000128:	e0bffc15 	stw	r2,-16(fp)
     * called to clear the interrupt condition.
     */

    do
    {
      if (active & mask)
 800012c:	e0fffb17 	ldw	r3,-20(fp)
 8000130:	e0bffc17 	ldw	r2,-16(fp)
 8000134:	1884703a 	and	r2,r3,r2
 8000138:	10001426 	beq	r2,zero,800018c <alt_irq_handler+0x90>
      { 
#ifdef ALT_ENHANCED_INTERRUPT_API_PRESENT
        alt_irq[i].handler(alt_irq[i].context); 
 800013c:	00820074 	movhi	r2,2049
 8000140:	109eeb04 	addi	r2,r2,31660
 8000144:	e0fffd17 	ldw	r3,-12(fp)
 8000148:	180690fa 	slli	r3,r3,3
 800014c:	10c5883a 	add	r2,r2,r3
 8000150:	10c00017 	ldw	r3,0(r2)
 8000154:	00820074 	movhi	r2,2049
 8000158:	109eeb04 	addi	r2,r2,31660
 800015c:	e13ffd17 	ldw	r4,-12(fp)
 8000160:	200890fa 	slli	r4,r4,3
 8000164:	1105883a 	add	r2,r2,r4
 8000168:	10800104 	addi	r2,r2,4
 800016c:	10800017 	ldw	r2,0(r2)
 8000170:	1009883a 	mov	r4,r2
 8000174:	183ee83a 	callr	r3
#else
        alt_irq[i].handler(alt_irq[i].context, i); 
#endif
        break;
 8000178:	0001883a 	nop
#ifndef NIOS2_EIC_PRESENT
static ALT_INLINE alt_u32 ALT_ALWAYS_INLINE alt_irq_pending (void)
{
  alt_u32 active;

  NIOS2_READ_IPENDING (active);
 800017c:	0005313a 	rdctl	r2,ipending
 8000180:	e0bfff15 	stw	r2,-4(fp)

  return active;
 8000184:	e0bfff17 	ldw	r2,-4(fp)
 8000188:	00000706 	br	80001a8 <alt_irq_handler+0xac>
      }
      mask <<= 1;
 800018c:	e0bffc17 	ldw	r2,-16(fp)
 8000190:	1085883a 	add	r2,r2,r2
 8000194:	e0bffc15 	stw	r2,-16(fp)
      i++;
 8000198:	e0bffd17 	ldw	r2,-12(fp)
 800019c:	10800044 	addi	r2,r2,1
 80001a0:	e0bffd15 	stw	r2,-12(fp)

    } while (1);
 80001a4:	003fe106 	br	800012c <__alt_data_end+0xfc00012c>

    active = alt_irq_pending ();
 80001a8:	e0bffb15 	stw	r2,-20(fp)
    
  } while (active);
 80001ac:	e0bffb17 	ldw	r2,-20(fp)
 80001b0:	103fdb1e 	bne	r2,zero,8000120 <__alt_data_end+0xfc000120>

  /*
   * Notify the operating system that interrupt processing is complete.
   */ 

  ALT_OS_INT_EXIT();
 80001b4:	0001883a 	nop
}
 80001b8:	0001883a 	nop
 80001bc:	e037883a 	mov	sp,fp
 80001c0:	dfc00117 	ldw	ra,4(sp)
 80001c4:	df000017 	ldw	fp,0(sp)
 80001c8:	dec00204 	addi	sp,sp,8
 80001cc:	f800283a 	ret

080001d0 <alt_instruction_exception_entry>:
 * that handler if it has been registered. Absent a handler, it will
 * break break or hang as discussed below.
 */
int 
alt_instruction_exception_entry (alt_u32 exception_pc)
{
 80001d0:	defffb04 	addi	sp,sp,-20
 80001d4:	dfc00415 	stw	ra,16(sp)
 80001d8:	df000315 	stw	fp,12(sp)
 80001dc:	df000304 	addi	fp,sp,12
 80001e0:	e13fff15 	stw	r4,-4(fp)
  cause = ( (cause & NIOS2_EXCEPTION_REG_CAUSE_MASK) >>
              NIOS2_EXCEPTION_REG_CAUSE_OFST );

  NIOS2_READ_BADADDR(badaddr);
#else
  cause = NIOS2_EXCEPTION_CAUSE_NOT_PRESENT;
 80001e4:	00bfffc4 	movi	r2,-1
 80001e8:	e0bffd15 	stw	r2,-12(fp)
  badaddr = 0;
 80001ec:	e03ffe15 	stw	zero,-8(fp)
#endif /* NIOS2_HAS_EXTRA_EXCEPTION_INFO */

  if(alt_instruction_exception_handler) {
 80001f0:	d0a6f617 	ldw	r2,-25640(gp)
 80001f4:	10000726 	beq	r2,zero,8000214 <alt_instruction_exception_entry+0x44>
     * Call handler. Its return value indicates whether the exception-causing
     * instruction should be re-issued. The code that called us,
     * alt_eceptions_entry.S, will look at this value and adjust the ea
     * register as necessary
     */
    return alt_instruction_exception_handler(cause, exception_pc, badaddr);
 80001f8:	d0a6f617 	ldw	r2,-25640(gp)
 80001fc:	e0fffd17 	ldw	r3,-12(fp)
 8000200:	e1bffe17 	ldw	r6,-8(fp)
 8000204:	e17fff17 	ldw	r5,-4(fp)
 8000208:	1809883a 	mov	r4,r3
 800020c:	103ee83a 	callr	r2
 8000210:	00000206 	br	800021c <alt_instruction_exception_entry+0x4c>
   *    (a peripheral which negates its interrupt output before its
   *    interrupt handler has been executed will cause spurious interrupts)
   */
  else {
#ifdef NIOS2_HAS_DEBUG_STUB
    NIOS2_BREAK();
 8000214:	003da03a 	break	0
      ;
#endif /* NIOS2_HAS_DEBUG_STUB */
  }

  /* We should not get here. Remove compiler warning. */
  return NIOS2_EXCEPTION_RETURN_REISSUE_INST;
 8000218:	0005883a 	mov	r2,zero
}
 800021c:	e037883a 	mov	sp,fp
 8000220:	dfc00117 	ldw	ra,4(sp)
 8000224:	df000017 	ldw	fp,0(sp)
 8000228:	dec00204 	addi	sp,sp,8
 800022c:	f800283a 	ret

Disassembly of section .text:

08000230 <_start>:

    /*
     * Now that the caches are initialized, set up the stack pointer and global pointer.
     * The values provided by the linker are assumed to be correctly aligned.
     */
    movhi sp, %hi(__alt_stack_pointer)
 8000230:	06c30034 	movhi	sp,3072
    ori sp, sp, %lo(__alt_stack_pointer)
 8000234:	dec00014 	ori	sp,sp,0
    movhi gp, %hi(_gp)
 8000238:	06820074 	movhi	gp,2049
    ori gp, gp, %lo(_gp)
 800023c:	d6b78e14 	ori	gp,gp,56888
 */
#ifndef ALT_SIM_OPTIMIZE
    /* Log that the BSS is about to be cleared. */
    ALT_LOG_PUTS(alt_log_msg_bss)

    movhi r2, %hi(__bss_start)
 8000240:	00820074 	movhi	r2,2049
    ori r2, r2, %lo(__bss_start)
 8000244:	109e7114 	ori	r2,r2,31172

    movhi r3, %hi(__bss_end)
 8000248:	00c20074 	movhi	r3,2049
    ori r3, r3, %lo(__bss_end)
 800024c:	18df2b14 	ori	r3,r3,31916

    beq r2, r3, 1f
 8000250:	10c00326 	beq	r2,r3,8000260 <_start+0x30>

0:
    stw zero, (r2)
 8000254:	10000015 	stw	zero,0(r2)
    addi r2, r2, 4
 8000258:	10800104 	addi	r2,r2,4
    bltu r2, r3, 0b
 800025c:	10fffd36 	bltu	r2,r3,8000254 <__alt_data_end+0xfc000254>
     * section aren't defined until alt_load() has been called).
     */
    mov   et, zero
#endif

    call alt_load
 8000260:	800fd900 	call	800fd90 <alt_load>

    /* Log that alt_main is about to be called. */
    ALT_LOG_PUTS(alt_log_msg_alt_main)

    /* Call the C entry point. It should never return. */
    call alt_main
 8000264:	800ff2c0 	call	800ff2c <alt_main>

08000268 <alt_after_alt_main>:

    /* Wait in infinite loop in case alt_main does return. */
alt_after_alt_main:
    br alt_after_alt_main
 8000268:	003fff06 	br	8000268 <__alt_data_end+0xfc000268>

0800026c <main>:
#include "usb_kb/usb_ch9.h"
#include "usb_kb/USB.h"
#include "usb_input.h"


int main() {
 800026c:	defffc04 	addi	sp,sp,-16
 8000270:	dfc00315 	stw	ra,12(sp)
 8000274:	df000215 	stw	fp,8(sp)
 8000278:	df000204 	addi	fp,sp,8
	volatile unsigned int *INITIALIZE_LEVEL_PIO = (unsigned int*)0x11150;
 800027c:	00800074 	movhi	r2,1
 8000280:	10845404 	addi	r2,r2,4432
 8000284:	e0bfff15 	stw	r2,-4(fp)

	*INITIALIZE_LEVEL_PIO = 0;
 8000288:	e0bfff17 	ldw	r2,-4(fp)
 800028c:	10000015 	stw	zero,0(r2)
	//mapWrite();
	for (int i = 0; i < 119110; i++)
 8000290:	e03ffe15 	stw	zero,-8(fp)
 8000294:	00000606 	br	80002b0 <main+0x44>
		*INITIALIZE_LEVEL_PIO = 1; //this triggers the initial loading of registers
 8000298:	e0bfff17 	ldw	r2,-4(fp)
 800029c:	00c00044 	movi	r3,1
 80002a0:	10c00015 	stw	r3,0(r2)
int main() {
	volatile unsigned int *INITIALIZE_LEVEL_PIO = (unsigned int*)0x11150;

	*INITIALIZE_LEVEL_PIO = 0;
	//mapWrite();
	for (int i = 0; i < 119110; i++)
 80002a4:	e0bffe17 	ldw	r2,-8(fp)
 80002a8:	10800044 	addi	r2,r2,1
 80002ac:	e0bffe15 	stw	r2,-8(fp)
 80002b0:	e0fffe17 	ldw	r3,-8(fp)
 80002b4:	008000b4 	movhi	r2,2
 80002b8:	10b45144 	addi	r2,r2,-11963
 80002bc:	10fff60e 	bge	r2,r3,8000298 <__alt_data_end+0xfc000298>
		*INITIALIZE_LEVEL_PIO = 1; //this triggers the initial loading of registers
	*INITIALIZE_LEVEL_PIO = 0;
 80002c0:	e0bfff17 	ldw	r2,-4(fp)
 80002c4:	10000015 	stw	zero,0(r2)
	usb_input();
 80002c8:	80006fc0 	call	80006fc <usb_input>
	return 0;
 80002cc:	0005883a 	mov	r2,zero
}
 80002d0:	e037883a 	mov	sp,fp
 80002d4:	dfc00117 	ldw	ra,4(sp)
 80002d8:	df000017 	ldw	fp,0(sp)
 80002dc:	dec00204 	addi	sp,sp,8
 80002e0:	f800283a 	ret

080002e4 <mapClr>:
#include <stdlib.h>
#include <string.h>
#include <alt_types.h>
#include "map_print.h"

void mapClr(){
 80002e4:	defffe04 	addi	sp,sp,-8
 80002e8:	df000115 	stw	fp,4(sp)
 80002ec:	df000104 	addi	fp,sp,4
	for (int i = 0; i < ROWS * COLUMNS; i++){
 80002f0:	e03fff15 	stw	zero,-4(fp)
 80002f4:	00000706 	br	8000314 <mapClr+0x30>
		vga_ctrl->MAPS[i] = 0x00;
 80002f8:	d0e00117 	ldw	r3,-32764(gp)
 80002fc:	e0bfff17 	ldw	r2,-4(fp)
 8000300:	1885883a 	add	r2,r3,r2
 8000304:	10000005 	stb	zero,0(r2)
#include <string.h>
#include <alt_types.h>
#include "map_print.h"

void mapClr(){
	for (int i = 0; i < ROWS * COLUMNS; i++){
 8000308:	e0bfff17 	ldw	r2,-4(fp)
 800030c:	10800044 	addi	r2,r2,1
 8000310:	e0bfff15 	stw	r2,-4(fp)
 8000314:	e0bfff17 	ldw	r2,-4(fp)
 8000318:	10804b10 	cmplti	r2,r2,300
 800031c:	103ff61e 	bne	r2,zero,80002f8 <__alt_data_end+0xfc0002f8>
		vga_ctrl->MAPS[i] = 0x00;
	}
}
 8000320:	0001883a 	nop
 8000324:	e037883a 	mov	sp,fp
 8000328:	df000017 	ldw	fp,0(sp)
 800032c:	dec00104 	addi	sp,sp,4
 8000330:	f800283a 	ret

08000334 <mapWrite>:

void mapWrite(){
 8000334:	defa6f04 	addi	sp,sp,-5700
 8000338:	dfc59015 	stw	ra,5696(sp)
 800033c:	df058f15 	stw	fp,5692(sp)
 8000340:	df058f04 	addi	fp,sp,5692
	mapClr();
 8000344:	80002e40 	call	80002e4 <mapClr>

	alt_u8 maps[] = {
 8000348:	00820074 	movhi	r2,2049
 800034c:	1089e704 	addi	r2,r2,10140
 8000350:	e0fa7404 	addi	r3,fp,-5680
 8000354:	1009883a 	mov	r4,r2
 8000358:	0082ee04 	movi	r2,3000
 800035c:	100d883a 	mov	r6,r2
 8000360:	200b883a 	mov	r5,r4
 8000364:	1809883a 	mov	r4,r3
 8000368:	8002b200 	call	8002b20 <memcpy>
			//level9
			0x82, 0x82, 0x82, 0x82, 0x82, 0x82, 0x82, 0x82, 0x82, 0x82, 0x82, 0x82, 0x82, 0x82, 0x82, 0x82, 0x82, 0x82, 0x82, 0x82, 0x82, 0x82, 0x82, 0x82, 0x82, 0x82, 0x82, 0x82, 0x82, 0x82, 0x82, 0x82, 0x82, 0x82, 0x82, 0x82, 0x82, 0x82, 0x82, 0x82, 0x82, 0x82, 0x82, 0x82, 0x82, 0x82, 0x82, 0x82, 0x82, 0x82, 0x82, 0x82, 0x82, 0x82, 0x82, 0x82, 0x82, 0x82, 0x82, 0x82, 0x82, 0x82, 0x82, 0x82, 0x82, 0x82, 0x82, 0x82, 0x12, 0x2C, 0x34, 0x8A, 0x82, 0x82, 0x82, 0x82, 0x82, 0x82, 0x82, 0x82, 0x82, 0x82, 0x82, 0x82, 0x82, 0x42, 0x42, 0x42, 0x52, 0x8C, 0x14, 0x4A, 0x42, 0x42, 0x42, 0x82, 0x82, 0x82, 0x82, 0x82, 0x82, 0x82, 0x82, 0x82, 0x12, 0x28, 0x21, 0x20, 0x21, 0x80, 0x81, 0x20, 0x21, 0x20, 0x31, 0x8A, 0x82, 0x82, 0x82, 0x82, 0x82, 0x82, 0x82, 0x82, 0x12, 0x89, 0x80, 0x81, 0x80, 0x81, 0x80, 0x81, 0x80, 0x81, 0x10, 0x8A, 0x82, 0x82, 0x82, 0x82, 0x82, 0x82, 0x82, 0x82, 0x12, 0x88, 0x81, 0x80, 0x81, 0x80, 0x81, 0x80, 0x81, 0x80, 0x11, 0x8A, 0x82, 0x82, 0x82, 0x82, 0x82, 0x82, 0x82, 0x82, 0x12, 0x89, 0x80, 0x81, 0x80, 0x81, 0x80, 0x81, 0x80, 0x81, 0x10, 0x8A, 0x82, 0x82, 0x82, 0x82, 0x82, 0x82, 0x82, 0x82, 0x12, 0x88, 0x81, 0x80, 0x81, 0x80, 0x81, 0x80, 0x81, 0x80, 0x11, 0x8A, 0x82, 0x82, 0x82, 0x82, 0x82, 0x82, 0x82, 0x82, 0x12, 0x89, 0x80, 0x81, 0x80, 0x81, 0x80, 0x81, 0x80, 0x81, 0x10, 0x8A, 0x82, 0x82, 0x82, 0x82, 0x82, 0x82, 0x82, 0x82, 0x12, 0x48, 0x41, 0x40, 0x41, 0x80, 0x81, 0x40, 0x41, 0x40, 0x51, 0x8A, 0x82, 0x82, 0x82, 0x82, 0x82, 0x82, 0x82, 0x82, 0x82, 0x22, 0x22, 0x22, 0x32, 0x8B, 0x13, 0x2A, 0x22, 0x22, 0x22, 0x82, 0x82, 0x82, 0x82, 0x82, 0x82, 0x82, 0x82, 0x82, 0x82, 0x82, 0x82, 0x82, 0x12, 0x4B, 0x53, 0x8A, 0x82, 0x82, 0x82, 0x82, 0x82, 0x82, 0x82, 0x82, 0x82, 0x82, 0x82, 0x82, 0x82, 0x82, 0x82, 0x82, 0x82, 0x22, 0x22, 0x82, 0x82, 0x82, 0x82, 0x82, 0x82, 0x82, 0x82, 0x82,

			//level10
			0x82, 0x82, 0x82, 0x82, 0x82, 0x82, 0x82, 0x82, 0x82, 0x82, 0x82, 0x82, 0x82, 0x82, 0x82, 0x82, 0x82, 0x82, 0x82, 0x82, 0x82, 0x82, 0x82, 0x82, 0x82, 0x82, 0x82, 0x82, 0x82, 0x82, 0x82, 0x82, 0x82, 0x82, 0x82, 0x82, 0x82, 0x82, 0x82, 0x82, 0x82, 0x42, 0x42, 0x42, 0x42, 0x42, 0x42, 0x42, 0x42, 0x42, 0x42, 0x42, 0x42, 0x42, 0x42, 0x42, 0x42, 0x42, 0x82, 0x82, 0x12, 0x2C, 0x24, 0x20, 0x21, 0x20, 0x21, 0x20, 0x21, 0x20, 0x21, 0x20, 0x21, 0x20, 0x21, 0x20, 0x21, 0x30, 0x8A, 0x82, 0x12, 0x4C, 0x44, 0x81, 0x80, 0x81, 0x80, 0x81, 0x80, 0x81, 0x80, 0x81, 0x80, 0x81, 0x80, 0x81, 0x80, 0x11, 0x8A, 0x82, 0x82, 0x22, 0x32, 0x88, 0x81, 0x80, 0x81, 0x80, 0x81, 0x80, 0x81, 0x80, 0x81, 0x80, 0x81, 0x80, 0x81, 0x10, 0x4A, 0x82, 0x82, 0x82, 0x12, 0x89, 0x80, 0x81, 0x80, 0x81, 0x80, 0x81, 0x80, 0x81, 0x80, 0x81, 0x80, 0x81, 0x80, 0x81, 0x30, 0x8A, 0x82, 0x82, 0x12, 0x48, 0x41, 0x40, 0x41, 0x40, 0x41, 0x40, 0x41, 0x40, 0x41, 0x40, 0x41, 0x40, 0x81, 0x80, 0x11, 0x8A, 0x82, 0x82, 0x82, 0x62, 0x62, 0x62, 0x62, 0x62, 0x62, 0x62, 0x62, 0x62, 0x62, 0x62, 0x62, 0x72, 0x88, 0x81, 0x10, 0x8A, 0x82, 0x82, 0x12, 0x28, 0x21, 0x20, 0x21, 0x20, 0x21, 0x20, 0x21, 0x20, 0x21, 0x20, 0x21, 0x20, 0x81, 0x80, 0x11, 0x8A, 0x82, 0x82, 0x12, 0x89, 0x80, 0x81, 0x80, 0x81, 0x80, 0x81, 0x80, 0x81, 0x80, 0x81, 0x80, 0x81, 0x80, 0x81, 0x50, 0x8A, 0x82, 0x42, 0x52, 0x88, 0x81, 0x80, 0x81, 0x80, 0x81, 0x80, 0x81, 0x80, 0x81, 0x80, 0x81, 0x80, 0x81, 0x10, 0x2A, 0x82, 0x12, 0x2B, 0x23, 0x81, 0x80, 0x81, 0x80, 0x81, 0x80, 0x81, 0x80, 0x81, 0x80, 0x81, 0x80, 0x81, 0x80, 0x11, 0x8A, 0x82, 0x12, 0x4B, 0x43, 0x40, 0x41, 0x40, 0x41, 0x40, 0x41, 0x40, 0x41, 0x40, 0x41, 0x40, 0x41, 0x40, 0x41, 0x50, 0x8A, 0x82, 0x82, 0x22, 0x22, 0x22, 0x22, 0x22, 0x22, 0x22, 0x22, 0x22, 0x22, 0x22, 0x22, 0x22, 0x22, 0x22, 0x22, 0x22, 0x82, 0x82																															};
	alt_u8 obstacles[] = {
 800036c:	00820074 	movhi	r2,2049
 8000370:	108cd504 	addi	r2,r2,13140
 8000374:	e0fd6204 	addi	r3,fp,-2680
 8000378:	1009883a 	mov	r4,r2
 800037c:	00828004 	movi	r2,2560
 8000380:	100d883a 	mov	r6,r2
 8000384:	200b883a 	mov	r5,r4
 8000388:	1809883a 	mov	r4,r3
 800038c:	8002b200 	call	8002b20 <memcpy>
			//level9
			0xB0, 0xC0, 0x02, 0x40, 0x00, 0x00, 0x43, 0x03, 0xD0, 0xC0, 0x05, 0x40, 0x00, 0x00, 0xC3, 0x03, 0xF0, 0xC0, 0x02, 0x40, 0x00, 0x00, 0x43, 0x03, 0x10, 0xC1, 0x05, 0x40, 0x00, 0x00, 0xC3, 0x03, 0x30, 0xC1, 0x02, 0x40, 0x00, 0x00, 0x43, 0x03, 0x50, 0xC1, 0x05, 0x40, 0x00, 0x00, 0xC3, 0x03, 0x70, 0xC1, 0x02, 0x40, 0x00, 0x00, 0x43, 0x03, 0x90, 0xC1, 0x05, 0x40, 0x00, 0x00, 0xC3, 0x03, 0xB0, 0xC1, 0x02, 0x40, 0x00, 0x00, 0x43, 0x03, 0x00, 0x00, 0x00, 0x00, 0x00, 0x00, 0x00, 0x00, 0xB0, 0xC0, 0x02, 0x40, 0x00, 0x80, 0x04, 0x03, 0xB0, 0xC0, 0x03, 0x40, 0x00, 0x00, 0x00, 0x03, 0xB0, 0xC0, 0x04, 0x40, 0x00, 0x00, 0x00, 0x03, 0x00, 0x00, 0x00, 0x00, 0x00, 0x80, 0x04, 0x00, 0xD0, 0xC1, 0x02, 0x40, 0x00, 0x80, 0x84, 0x03, 0xD0, 0xC1, 0x03, 0x40, 0x00, 0x80, 0x84, 0x03, 0xD0, 0xC1, 0x04, 0x40, 0x00, 0x80, 0x84, 0x03, 0xD0, 0xC1, 0x05, 0x40, 0x00, 0x80, 0x84, 0x03, 0x00, 0x00, 0x00, 0x00, 0x00, 0x00, 0x00, 0x00, 0x00, 0x00, 0x00, 0x00, 0x00, 0x00, 0x00, 0x00, 0x00, 0x00, 0x00, 0x00, 0x00, 0x00, 0x00, 0x00, 0x00, 0x00, 0x00, 0x00, 0x00, 0x00, 0x00, 0x00, 0x00, 0x00, 0x00, 0x00, 0x00, 0x00, 0x00, 0x00, 0x00, 0x00, 0x00, 0x00, 0x00, 0x00, 0x00, 0x00, 0x00, 0x00, 0x00, 0x00, 0x00, 0x00, 0x00, 0x00, 0x00, 0x00, 0x00, 0x00, 0x00, 0x00, 0x00, 0x00, 0x00, 0x00, 0x00, 0x00, 0x00, 0x00, 0x00, 0x00, 0x00, 0x00, 0x00, 0x00, 0x00, 0x00, 0x00, 0x00, 0x00, 0x00, 0x00, 0x00, 0x00, 0x00, 0x00, 0x00, 0x00, 0x00, 0x00, 0x00, 0x00, 0x00, 0x00, 0x00, 0x00, 0x00, 0x00, 0x00, 0x00, 0x00, 0x00, 0x00, 0x00, 0x00, 0x00, 0x00, 0x00, 0x00, 0x00, 0x00,
			//level_10
			0x70, 0xC0, 0x06, 0x52, 0xF0, 0x80, 0x92, 0x33, 0x70, 0x40, 0x06, 0x52, 0xF0, 0x80, 0x92, 0x33, 0x70, 0xC0, 0x05, 0x52, 0xF0, 0x80, 0x92, 0x33, 0x70, 0x40, 0x04, 0x52, 0xF0, 0x80, 0x92, 0x33, 0x70, 0x40, 0x03, 0x52, 0xF0, 0x80, 0x92, 0x33, 0x70, 0xC0, 0x01, 0x52, 0xF0, 0x80, 0x92, 0x33, 0x10, 0xC1, 0x06, 0x52, 0xF0, 0x80, 0x92, 0x33, 0x10, 0x41, 0x06, 0x52, 0xF0, 0x80, 0x92, 0x33, 0x10, 0xC1, 0x05, 0x52, 0xF0, 0x80, 0x92, 0x33, 0x10, 0x41, 0x04, 0x52, 0xF0, 0x80, 0x92, 0x33, 0x10, 0x41, 0x03, 0x52, 0xF0, 0x80, 0x92, 0x33, 0x10, 0xC1, 0x01, 0x52, 0xF0, 0x80, 0x92, 0x33, 0x08, 0x41, 0x02, 0x52, 0xF0, 0x40, 0x91, 0x33, 0x10, 0x41, 0x02, 0x52, 0xF0, 0x40, 0x91, 0x33, 0x18, 0x41, 0x02, 0x52, 0xF0, 0x40, 0x91, 0x33, 0x20, 0x41, 0x02, 0x52, 0xF0, 0x40, 0x91, 0x33, 0x70, 0x40, 0x04, 0x52, 0x00, 0x40, 0xC1, 0x04, 0x90, 0x40, 0x04, 0x52, 0x00, 0x40, 0xC1, 0x04, 0xB0, 0x40, 0x04, 0x52, 0x00, 0x40, 0xC1, 0x04, 0xD0, 0x40, 0x04, 0x52, 0x00, 0x40, 0xC1, 0x04, 0xF0, 0x40, 0x04, 0x52, 0x00, 0x40, 0xC1, 0x04, 0x10, 0x41, 0x04, 0x52, 0x00, 0x40, 0xC1, 0x04, 0x30, 0x41, 0x04, 0x52, 0x00, 0x40, 0xC1, 0x04, 0x50, 0x41, 0x04, 0x52, 0x00, 0x40, 0xC1, 0x04, 0xD0, 0xC1, 0x01, 0x40, 0x00, 0x40, 0x01, 0x00, 0xD0, 0xC1, 0x06, 0x40, 0x00, 0x40, 0x81, 0x00, 0xD0, 0xC1, 0x01, 0x40, 0x00, 0x40, 0x01, 0x00, 0xD0, 0xC1, 0x06, 0x40, 0x00, 0x40, 0x81, 0x00, 0xFA, 0x40, 0x04, 0x40, 0x00, 0x40, 0x01, 0x00, 0xFA, 0x40, 0x04, 0x40, 0x00, 0x40, 0x81, 0x00, 0xFA, 0x40, 0x04, 0x40, 0x00, 0x40, 0x01, 0x00, 0xFA, 0x40, 0x04, 0x40, 0x00, 0x40, 0x81, 0x00,
	};
	alt_u8 player_coin[] = {
 8000390:	00820074 	movhi	r2,2049
 8000394:	108f5504 	addi	r2,r2,15700
 8000398:	e0ffe204 	addi	r3,fp,-120
 800039c:	1009883a 	mov	r4,r2
 80003a0:	00801e04 	movi	r2,120
 80003a4:	100d883a 	mov	r6,r2
 80003a8:	200b883a 	mov	r5,r4
 80003ac:	1809883a 	mov	r4,r3
 80003b0:	8002b200 	call	8002b20 <memcpy>
			0x8F, 0xB1, 0xC2, 0x0C, 0xEC, 0x30, 0xC4, 0x12, 0x4C, 0x01, 0x00, 0x00, 0x0D, 0x21, 0x84, 0x10, 0x08, 0xA1, 0x32, 0x12, 0x87, 0x00, 0x00, 0x00, 0x0C, 0x21, 0x84, 0x10, 0x08, 0xA1, 0x32, 0x12, 0x87, 0x00, 0x00, 0x00, 0x0B, 0x21, 0x84, 0x10, 0x08, 0xA1, 0x32, 0x12, 0x87, 0x00, 0x00, 0x00, 0x0A, 0x21, 0x84, 0x10, 0x08, 0xA1, 0x32, 0x12, 0x87, 0x00, 0x00, 0x00, 0x09, 0x21, 0x84, 0x10, 0x08, 0xA1, 0x32, 0x12, 0x87, 0x00, 0x00, 0x00, 0x08, 0x21, 0x84, 0x10, 0x08, 0xA1, 0x32, 0x12, 0x87, 0x00, 0x00, 0x00, 0x07, 0x21, 0x84, 0x10, 0x08, 0xA1, 0x32, 0x12, 0x87, 0x00, 0x00, 0x00, 0x06, 0x21, 0x84, 0x10, 0x08, 0xA1, 0x32, 0x12, 0x87, 0x00, 0x00, 0x00, 0x05, 0x21, 0x84, 0x10, 0x08, 0xA1, 0x32, 0x12, 0x87, 0x00, 0x00, 0x00,

	};

	for(int i = 0; i < 3000; i++){
 80003b4:	e03a7115 	stw	zero,-5692(fp)
 80003b8:	00000b06 	br	80003e8 <mapWrite+0xb4>
		vga_ctrl->MAPS[i] = maps[i];
 80003bc:	d1200117 	ldw	r4,-32764(gp)
 80003c0:	e0fa7404 	addi	r3,fp,-5680
 80003c4:	e0ba7117 	ldw	r2,-5692(fp)
 80003c8:	1885883a 	add	r2,r3,r2
 80003cc:	10c00003 	ldbu	r3,0(r2)
 80003d0:	e0ba7117 	ldw	r2,-5692(fp)
 80003d4:	2085883a 	add	r2,r4,r2
 80003d8:	10c00005 	stb	r3,0(r2)
	alt_u8 player_coin[] = {
			0x8F, 0xB1, 0xC2, 0x0C, 0xEC, 0x30, 0xC4, 0x12, 0x4C, 0x01, 0x00, 0x00, 0x0D, 0x21, 0x84, 0x10, 0x08, 0xA1, 0x32, 0x12, 0x87, 0x00, 0x00, 0x00, 0x0C, 0x21, 0x84, 0x10, 0x08, 0xA1, 0x32, 0x12, 0x87, 0x00, 0x00, 0x00, 0x0B, 0x21, 0x84, 0x10, 0x08, 0xA1, 0x32, 0x12, 0x87, 0x00, 0x00, 0x00, 0x0A, 0x21, 0x84, 0x10, 0x08, 0xA1, 0x32, 0x12, 0x87, 0x00, 0x00, 0x00, 0x09, 0x21, 0x84, 0x10, 0x08, 0xA1, 0x32, 0x12, 0x87, 0x00, 0x00, 0x00, 0x08, 0x21, 0x84, 0x10, 0x08, 0xA1, 0x32, 0x12, 0x87, 0x00, 0x00, 0x00, 0x07, 0x21, 0x84, 0x10, 0x08, 0xA1, 0x32, 0x12, 0x87, 0x00, 0x00, 0x00, 0x06, 0x21, 0x84, 0x10, 0x08, 0xA1, 0x32, 0x12, 0x87, 0x00, 0x00, 0x00, 0x05, 0x21, 0x84, 0x10, 0x08, 0xA1, 0x32, 0x12, 0x87, 0x00, 0x00, 0x00,

	};

	for(int i = 0; i < 3000; i++){
 80003dc:	e0ba7117 	ldw	r2,-5692(fp)
 80003e0:	10800044 	addi	r2,r2,1
 80003e4:	e0ba7115 	stw	r2,-5692(fp)
 80003e8:	e0ba7117 	ldw	r2,-5692(fp)
 80003ec:	1082ee10 	cmplti	r2,r2,3000
 80003f0:	103ff21e 	bne	r2,zero,80003bc <__alt_data_end+0xfc0003bc>
		vga_ctrl->MAPS[i] = maps[i];
	}

	for(int i = 0; i < 2560; i++){
 80003f4:	e03a7215 	stw	zero,-5688(fp)
 80003f8:	00000c06 	br	800042c <mapWrite+0xf8>
			vga_ctrl->OBSTACLES[i] = obstacles[i];
 80003fc:	d1200117 	ldw	r4,-32764(gp)
 8000400:	e0fd6204 	addi	r3,fp,-2680
 8000404:	e0ba7217 	ldw	r2,-5688(fp)
 8000408:	1885883a 	add	r2,r3,r2
 800040c:	10c00003 	ldbu	r3,0(r2)
 8000410:	e0ba7217 	ldw	r2,-5688(fp)
 8000414:	2085883a 	add	r2,r4,r2
 8000418:	10840004 	addi	r2,r2,4096
 800041c:	10c00005 	stb	r3,0(r2)

	for(int i = 0; i < 3000; i++){
		vga_ctrl->MAPS[i] = maps[i];
	}

	for(int i = 0; i < 2560; i++){
 8000420:	e0ba7217 	ldw	r2,-5688(fp)
 8000424:	10800044 	addi	r2,r2,1
 8000428:	e0ba7215 	stw	r2,-5688(fp)
 800042c:	e0ba7217 	ldw	r2,-5688(fp)
 8000430:	10828010 	cmplti	r2,r2,2560
 8000434:	103ff11e 	bne	r2,zero,80003fc <__alt_data_end+0xfc0003fc>
			vga_ctrl->OBSTACLES[i] = obstacles[i];
		}
	for(int i = 0; i < 120; i++){
 8000438:	e03a7315 	stw	zero,-5684(fp)
 800043c:	00000c06 	br	8000470 <mapWrite+0x13c>
				vga_ctrl->COIN_PLAYER[i] = player_coin[i];
 8000440:	d1200117 	ldw	r4,-32764(gp)
 8000444:	e0ffe204 	addi	r3,fp,-120
 8000448:	e0ba7317 	ldw	r2,-5684(fp)
 800044c:	1885883a 	add	r2,r3,r2
 8000450:	10c00003 	ldbu	r3,0(r2)
 8000454:	e0ba7317 	ldw	r2,-5684(fp)
 8000458:	2085883a 	add	r2,r4,r2
 800045c:	10868004 	addi	r2,r2,6656
 8000460:	10c00005 	stb	r3,0(r2)
	}

	for(int i = 0; i < 2560; i++){
			vga_ctrl->OBSTACLES[i] = obstacles[i];
		}
	for(int i = 0; i < 120; i++){
 8000464:	e0ba7317 	ldw	r2,-5684(fp)
 8000468:	10800044 	addi	r2,r2,1
 800046c:	e0ba7315 	stw	r2,-5684(fp)
 8000470:	e0ba7317 	ldw	r2,-5684(fp)
 8000474:	10801e10 	cmplti	r2,r2,120
 8000478:	103ff11e 	bne	r2,zero,8000440 <__alt_data_end+0xfc000440>
				vga_ctrl->COIN_PLAYER[i] = player_coin[i];
			}


}
 800047c:	0001883a 	nop
 8000480:	e037883a 	mov	sp,fp
 8000484:	dfc00117 	ldw	ra,4(sp)
 8000488:	df000017 	ldw	fp,0(sp)
 800048c:	dec00204 	addi	sp,sp,8
 8000490:	f800283a 	ret

08000494 <GetDriverandReport>:
extern HID_DEVICE hid_device;

static BYTE addr = 1; 				//hard-wired USB address
const char* const devclasses[] = { " Uninitialized", " HID Keyboard", " HID Mouse", " Mass storage" };

BYTE GetDriverandReport() {
 8000494:	defff604 	addi	sp,sp,-40
 8000498:	dfc00915 	stw	ra,36(sp)
 800049c:	df000815 	stw	fp,32(sp)
 80004a0:	df000804 	addi	fp,sp,32
	BYTE i;
	BYTE rcode;
	BYTE device = 0xFF;
 80004a4:	00bfffc4 	movi	r2,-1
 80004a8:	e0bffd45 	stb	r2,-11(fp)
	BYTE tmpbyte;

	DEV_RECORD* tpl_ptr;
	printf("Reached USB_STATE_RUNNING (0x40)\n");
 80004ac:	01020074 	movhi	r4,2049
 80004b0:	210f8604 	addi	r4,r4,15896
 80004b4:	8002db40 	call	8002db4 <puts>
	for (i = 1; i < USB_NUMDEVICES; i++) {
 80004b8:	00800044 	movi	r2,1
 80004bc:	e0bffd05 	stb	r2,-12(fp)
 80004c0:	00001f06 	br	8000540 <GetDriverandReport+0xac>
		tpl_ptr = GetDevtable(i);
 80004c4:	e0bffd03 	ldbu	r2,-12(fp)
 80004c8:	1009883a 	mov	r4,r2
 80004cc:	80028880 	call	8002888 <GetDevtable>
 80004d0:	e0bffe15 	stw	r2,-8(fp)
		if (tpl_ptr->epinfo != NULL) {
 80004d4:	e0bffe17 	ldw	r2,-8(fp)
 80004d8:	10800017 	ldw	r2,0(r2)
 80004dc:	10001526 	beq	r2,zero,8000534 <GetDriverandReport+0xa0>
			printf("Device: %d", i);
 80004e0:	e0bffd03 	ldbu	r2,-12(fp)
 80004e4:	100b883a 	mov	r5,r2
 80004e8:	01020074 	movhi	r4,2049
 80004ec:	210f8f04 	addi	r4,r4,15932
 80004f0:	8002c980 	call	8002c98 <printf>
			printf("%s \n", devclasses[tpl_ptr->devclass]);
 80004f4:	e0bffe17 	ldw	r2,-8(fp)
 80004f8:	10800103 	ldbu	r2,4(r2)
 80004fc:	10c03fcc 	andi	r3,r2,255
 8000500:	00820074 	movhi	r2,2049
 8000504:	108f8204 	addi	r2,r2,15880
 8000508:	18c7883a 	add	r3,r3,r3
 800050c:	18c7883a 	add	r3,r3,r3
 8000510:	10c5883a 	add	r2,r2,r3
 8000514:	10800017 	ldw	r2,0(r2)
 8000518:	100b883a 	mov	r5,r2
 800051c:	01020074 	movhi	r4,2049
 8000520:	210f9204 	addi	r4,r4,15944
 8000524:	8002c980 	call	8002c98 <printf>
			device = tpl_ptr->devclass;
 8000528:	e0bffe17 	ldw	r2,-8(fp)
 800052c:	10800103 	ldbu	r2,4(r2)
 8000530:	e0bffd45 	stb	r2,-11(fp)
	BYTE device = 0xFF;
	BYTE tmpbyte;

	DEV_RECORD* tpl_ptr;
	printf("Reached USB_STATE_RUNNING (0x40)\n");
	for (i = 1; i < USB_NUMDEVICES; i++) {
 8000534:	e0bffd03 	ldbu	r2,-12(fp)
 8000538:	10800044 	addi	r2,r2,1
 800053c:	e0bffd05 	stb	r2,-12(fp)
 8000540:	e0bffd03 	ldbu	r2,-12(fp)
 8000544:	10800230 	cmpltui	r2,r2,8
 8000548:	103fde1e 	bne	r2,zero,80004c4 <__alt_data_end+0xfc0004c4>
			printf("%s \n", devclasses[tpl_ptr->devclass]);
			device = tpl_ptr->devclass;
		}
	}
	//Query rate and protocol
	rcode = XferGetIdle(addr, 0, hid_device.interface, 0, &tmpbyte);
 800054c:	d0a00203 	ldbu	r2,-32760(gp)
 8000550:	11003fcc 	andi	r4,r2,255
 8000554:	d0a6e343 	ldbu	r2,-25715(gp)
 8000558:	10803fcc 	andi	r2,r2,255
 800055c:	e0ffff44 	addi	r3,fp,-3
 8000560:	d8c00415 	stw	r3,16(sp)
 8000564:	00c00044 	movi	r3,1
 8000568:	d8c00315 	stw	r3,12(sp)
 800056c:	d8800215 	stw	r2,8(sp)
 8000570:	d8000115 	stw	zero,4(sp)
 8000574:	d8000015 	stw	zero,0(sp)
 8000578:	01c00084 	movi	r7,2
 800057c:	01802844 	movi	r6,161
 8000580:	000b883a 	mov	r5,zero
 8000584:	8001aac0 	call	8001aac <XferCtrlReq>
 8000588:	e0bfff05 	stb	r2,-4(fp)
	if (rcode) {   //error handling
 800058c:	e0bfff03 	ldbu	r2,-4(fp)
 8000590:	10000926 	beq	r2,zero,80005b8 <GetDriverandReport+0x124>
		printf("GetIdle Error. Error code: ");
 8000594:	01020074 	movhi	r4,2049
 8000598:	210f9404 	addi	r4,r4,15952
 800059c:	8002c980 	call	8002c98 <printf>
		printf("%x \n", rcode);
 80005a0:	e0bfff03 	ldbu	r2,-4(fp)
 80005a4:	100b883a 	mov	r5,r2
 80005a8:	01020074 	movhi	r4,2049
 80005ac:	210f9b04 	addi	r4,r4,15980
 80005b0:	8002c980 	call	8002c98 <printf>
 80005b4:	00000906 	br	80005dc <GetDriverandReport+0x148>
	} else {
		printf("Update rate: ");
 80005b8:	01020074 	movhi	r4,2049
 80005bc:	210f9d04 	addi	r4,r4,15988
 80005c0:	8002c980 	call	8002c98 <printf>
		printf("%x \n", tmpbyte);
 80005c4:	e0bfff43 	ldbu	r2,-3(fp)
 80005c8:	10803fcc 	andi	r2,r2,255
 80005cc:	100b883a 	mov	r5,r2
 80005d0:	01020074 	movhi	r4,2049
 80005d4:	210f9b04 	addi	r4,r4,15980
 80005d8:	8002c980 	call	8002c98 <printf>
	}
	printf("Protocol: ");
 80005dc:	01020074 	movhi	r4,2049
 80005e0:	210fa104 	addi	r4,r4,16004
 80005e4:	8002c980 	call	8002c98 <printf>
	rcode = XferGetProto(addr, 0, hid_device.interface, &tmpbyte);
 80005e8:	d0a00203 	ldbu	r2,-32760(gp)
 80005ec:	11003fcc 	andi	r4,r2,255
 80005f0:	d0a6e343 	ldbu	r2,-25715(gp)
 80005f4:	10803fcc 	andi	r2,r2,255
 80005f8:	e0ffff44 	addi	r3,fp,-3
 80005fc:	d8c00415 	stw	r3,16(sp)
 8000600:	00c00044 	movi	r3,1
 8000604:	d8c00315 	stw	r3,12(sp)
 8000608:	d8800215 	stw	r2,8(sp)
 800060c:	d8000115 	stw	zero,4(sp)
 8000610:	d8000015 	stw	zero,0(sp)
 8000614:	01c000c4 	movi	r7,3
 8000618:	01802844 	movi	r6,161
 800061c:	000b883a 	mov	r5,zero
 8000620:	8001aac0 	call	8001aac <XferCtrlReq>
 8000624:	e0bfff05 	stb	r2,-4(fp)
	if (rcode) {   //error handling
 8000628:	e0bfff03 	ldbu	r2,-4(fp)
 800062c:	10000926 	beq	r2,zero,8000654 <GetDriverandReport+0x1c0>
		printf("GetProto Error. Error code ");
 8000630:	01020074 	movhi	r4,2049
 8000634:	210fa404 	addi	r4,r4,16016
 8000638:	8002c980 	call	8002c98 <printf>
		printf("%x \n", rcode);
 800063c:	e0bfff03 	ldbu	r2,-4(fp)
 8000640:	100b883a 	mov	r5,r2
 8000644:	01020074 	movhi	r4,2049
 8000648:	210f9b04 	addi	r4,r4,15980
 800064c:	8002c980 	call	8002c98 <printf>
 8000650:	00000606 	br	800066c <GetDriverandReport+0x1d8>
	} else {
		printf("%d \n", tmpbyte);
 8000654:	e0bfff43 	ldbu	r2,-3(fp)
 8000658:	10803fcc 	andi	r2,r2,255
 800065c:	100b883a 	mov	r5,r2
 8000660:	01020074 	movhi	r4,2049
 8000664:	210fab04 	addi	r4,r4,16044
 8000668:	8002c980 	call	8002c98 <printf>
	}
	return device;
 800066c:	e0bffd43 	ldbu	r2,-11(fp)
}
 8000670:	e037883a 	mov	sp,fp
 8000674:	dfc00117 	ldw	ra,4(sp)
 8000678:	df000017 	ldw	fp,0(sp)
 800067c:	dec00204 	addi	sp,sp,8
 8000680:	f800283a 	ret

08000684 <setKeycode>:

	IOWR_ALTERA_AVALON_PIO_DATA(HEX_DIGITS_PIO_BASE, pio_val);
}
*/
void setKeycode(WORD keycode0, WORD keycode1)
{
 8000684:	defffb04 	addi	sp,sp,-20
 8000688:	dfc00415 	stw	ra,16(sp)
 800068c:	df000315 	stw	fp,12(sp)
 8000690:	df000304 	addi	fp,sp,12
 8000694:	2007883a 	mov	r3,r4
 8000698:	2805883a 	mov	r2,r5
 800069c:	e0fffe0d 	sth	r3,-8(fp)
 80006a0:	e0bfff0d 	sth	r2,-4(fp)
	WORD most_sig_bits = keycode1 << 8;
 80006a4:	e0bfff0b 	ldhu	r2,-4(fp)
 80006a8:	1004923a 	slli	r2,r2,8
 80006ac:	e0bffd0d 	sth	r2,-12(fp)
	WORD keycode_combined = most_sig_bits + keycode0;
 80006b0:	e0fffd0b 	ldhu	r3,-12(fp)
 80006b4:	e0bffe0b 	ldhu	r2,-8(fp)
 80006b8:	1885883a 	add	r2,r3,r2
 80006bc:	e0bffd8d 	sth	r2,-10(fp)
	printf("\n keycode: %x", keycode_combined);
 80006c0:	e0bffd8b 	ldhu	r2,-10(fp)
 80006c4:	100b883a 	mov	r5,r2
 80006c8:	01020074 	movhi	r4,2049
 80006cc:	210fad04 	addi	r4,r4,16052
 80006d0:	8002c980 	call	8002c98 <printf>
	IOWR_ALTERA_AVALON_PIO_DATA(0x0011170, keycode_combined); // Change keycode to be a 16-bit input in platform designer
 80006d4:	e0fffd8b 	ldhu	r3,-10(fp)
 80006d8:	00800074 	movhi	r2,1
 80006dc:	10845c04 	addi	r2,r2,4464
 80006e0:	10c00035 	stwio	r3,0(r2)
}
 80006e4:	0001883a 	nop
 80006e8:	e037883a 	mov	sp,fp
 80006ec:	dfc00117 	ldw	ra,4(sp)
 80006f0:	df000017 	ldw	fp,0(sp)
 80006f4:	dec00204 	addi	sp,sp,8
 80006f8:	f800283a 	ret

080006fc <usb_input>:
int usb_input(){
 80006fc:	defff704 	addi	sp,sp,-36
 8000700:	dfc00815 	stw	ra,32(sp)
 8000704:	df000715 	stw	fp,28(sp)
 8000708:	df000704 	addi	fp,sp,28
	BYTE rcode;
	BOOT_MOUSE_REPORT buf;		//USB mouse report
	BOOT_KBD_REPORT kbdbuf;

	BYTE runningdebugflag = 0;//flag to dump out a bunch of information when we first get to USB_STATE_RUNNING
 800070c:	e03ff905 	stb	zero,-28(fp)
	BYTE errorflag = 0; //flag once we get an error device so we don't keep dumping out state info
 8000710:	e03ff945 	stb	zero,-27(fp)
	BYTE device;
	WORD keycode;

	printf("initializing MAX3421E...\n");
 8000714:	01020074 	movhi	r4,2049
 8000718:	210fb104 	addi	r4,r4,16068
 800071c:	8002db40 	call	8002db4 <puts>
	MAX3421E_init();
 8000720:	80018b00 	call	80018b0 <MAX3421E_init>
	printf("initializing USB...\n");
 8000724:	01020074 	movhi	r4,2049
 8000728:	210fb804 	addi	r4,r4,16096
 800072c:	8002db40 	call	8002db4 <puts>
	USB_init();
 8000730:	80020600 	call	8002060 <USB_init>

	while (1) {
		printf(".");
 8000734:	01000b84 	movi	r4,46
 8000738:	8002cdc0 	call	8002cdc <putchar>
		MAX3421E_Task();
 800073c:	80019440 	call	8001944 <MAX3421E_Task>
		USB_Task();
 8000740:	80020f80 	call	80020f8 <USB_Task>
		//usleep (500000);
		if (GetUsbTaskState() == USB_STATE_RUNNING) {
 8000744:	80028680 	call	8002868 <GetUsbTaskState>
 8000748:	10803fcc 	andi	r2,r2,255
 800074c:	10801018 	cmpnei	r2,r2,64
 8000750:	10006f1e 	bne	r2,zero,8000910 <usb_input+0x214>
			if (!runningdebugflag) {
 8000754:	e0bff903 	ldbu	r2,-28(fp)
 8000758:	1000051e 	bne	r2,zero,8000770 <usb_input+0x74>
				runningdebugflag = 1;
 800075c:	00800044 	movi	r2,1
 8000760:	e0bff905 	stb	r2,-28(fp)
				//setLED(9);
				device = GetDriverandReport();
 8000764:	80004940 	call	8000494 <GetDriverandReport>
 8000768:	e0bff985 	stb	r2,-26(fp)
 800076c:	003ff106 	br	8000734 <__alt_data_end+0xfc000734>
			} else if (device == 1) {
 8000770:	e0bff983 	ldbu	r2,-26(fp)
 8000774:	10800058 	cmpnei	r2,r2,1
 8000778:	1000301e 	bne	r2,zero,800083c <usb_input+0x140>
				//run keyboard debug polling
				rcode = kbdPoll(&kbdbuf);
 800077c:	e0bffd44 	addi	r2,fp,-11
 8000780:	1009883a 	mov	r4,r2
 8000784:	80012680 	call	8001268 <kbdPoll>
 8000788:	e0bffb05 	stb	r2,-20(fp)
				if (rcode == hrNAK) {
 800078c:	e0bffb03 	ldbu	r2,-20(fp)
 8000790:	10800118 	cmpnei	r2,r2,4
 8000794:	10007a26 	beq	r2,zero,8000980 <usb_input+0x284>
					continue; //NAK means no new data
				} else if (rcode) {
 8000798:	e0bffb03 	ldbu	r2,-20(fp)
 800079c:	10000926 	beq	r2,zero,80007c4 <usb_input+0xc8>
					printf("Rcode: ");
 80007a0:	01020074 	movhi	r4,2049
 80007a4:	210fbd04 	addi	r4,r4,16116
 80007a8:	8002c980 	call	8002c98 <printf>
					printf("%x \n", rcode);
 80007ac:	e0bffb03 	ldbu	r2,-20(fp)
 80007b0:	100b883a 	mov	r5,r2
 80007b4:	01020074 	movhi	r4,2049
 80007b8:	210f9b04 	addi	r4,r4,15980
 80007bc:	8002c980 	call	8002c98 <printf>
					continue;
 80007c0:	00007206 	br	800098c <usb_input+0x290>
				}
				printf("keycodes: ");
 80007c4:	01020074 	movhi	r4,2049
 80007c8:	210fbf04 	addi	r4,r4,16124
 80007cc:	8002c980 	call	8002c98 <printf>
				for (int i = 0; i < 6; i++) {
 80007d0:	e03ffa15 	stw	zero,-24(fp)
 80007d4:	00000c06 	br	8000808 <usb_input+0x10c>
					printf("%x ", kbdbuf.keycode[i]);
 80007d8:	e0fffdc4 	addi	r3,fp,-9
 80007dc:	e0bffa17 	ldw	r2,-24(fp)
 80007e0:	1885883a 	add	r2,r3,r2
 80007e4:	10800003 	ldbu	r2,0(r2)
 80007e8:	10803fcc 	andi	r2,r2,255
 80007ec:	100b883a 	mov	r5,r2
 80007f0:	01020074 	movhi	r4,2049
 80007f4:	210fc204 	addi	r4,r4,16136
 80007f8:	8002c980 	call	8002c98 <printf>
					printf("Rcode: ");
					printf("%x \n", rcode);
					continue;
				}
				printf("keycodes: ");
				for (int i = 0; i < 6; i++) {
 80007fc:	e0bffa17 	ldw	r2,-24(fp)
 8000800:	10800044 	addi	r2,r2,1
 8000804:	e0bffa15 	stw	r2,-24(fp)
 8000808:	e0bffa17 	ldw	r2,-24(fp)
 800080c:	10800190 	cmplti	r2,r2,6
 8000810:	103ff11e 	bne	r2,zero,80007d8 <__alt_data_end+0xfc0007d8>
					printf("%x ", kbdbuf.keycode[i]);
				}
				setKeycode(kbdbuf.keycode[0], kbdbuf.keycode[1]);
 8000814:	e0bffdc3 	ldbu	r2,-9(fp)
 8000818:	10803fcc 	andi	r2,r2,255
 800081c:	e0fffe03 	ldbu	r3,-8(fp)
 8000820:	18c03fcc 	andi	r3,r3,255
 8000824:	180b883a 	mov	r5,r3
 8000828:	1009883a 	mov	r4,r2
 800082c:	80006840 	call	8000684 <setKeycode>
				// Add another function to combine two keycodes
				// First keycode is bits [7:0]
				// Second key is bits [15:0]
				//printSignedHex0(kbdbuf.keycode[0]);
				//printSignedHex1(kbdbuf.keycode[1]);
				printf("\n");
 8000830:	01000284 	movi	r4,10
 8000834:	8002cdc0 	call	8002cdc <putchar>
 8000838:	003fbe06 	br	8000734 <__alt_data_end+0xfc000734>
			}

			else if (device == 2) {
 800083c:	e0bff983 	ldbu	r2,-26(fp)
 8000840:	10800098 	cmpnei	r2,r2,2
 8000844:	103fbb1e 	bne	r2,zero,8000734 <__alt_data_end+0xfc000734>
				rcode = mousePoll(&buf);
 8000848:	e0bffb44 	addi	r2,fp,-19
 800084c:	1009883a 	mov	r4,r2
 8000850:	80011e00 	call	80011e0 <mousePoll>
 8000854:	e0bffb05 	stb	r2,-20(fp)
				if (rcode == hrNAK) {
 8000858:	e0bffb03 	ldbu	r2,-20(fp)
 800085c:	10800118 	cmpnei	r2,r2,4
 8000860:	10004926 	beq	r2,zero,8000988 <usb_input+0x28c>
					//NAK means no new data
					continue;
				} else if (rcode) {
 8000864:	e0bffb03 	ldbu	r2,-20(fp)
 8000868:	10000926 	beq	r2,zero,8000890 <usb_input+0x194>
					printf("Rcode: ");
 800086c:	01020074 	movhi	r4,2049
 8000870:	210fbd04 	addi	r4,r4,16116
 8000874:	8002c980 	call	8002c98 <printf>
					printf("%x \n", rcode);
 8000878:	e0bffb03 	ldbu	r2,-20(fp)
 800087c:	100b883a 	mov	r5,r2
 8000880:	01020074 	movhi	r4,2049
 8000884:	210f9b04 	addi	r4,r4,15980
 8000888:	8002c980 	call	8002c98 <printf>
					continue;
 800088c:	00003f06 	br	800098c <usb_input+0x290>
				}
				printf("X displacement: ");
 8000890:	01020074 	movhi	r4,2049
 8000894:	210fc304 	addi	r4,r4,16140
 8000898:	8002c980 	call	8002c98 <printf>
				printf("%d ", (signed char) buf.Xdispl);
 800089c:	e0bffb83 	ldbu	r2,-18(fp)
 80008a0:	10803fcc 	andi	r2,r2,255
 80008a4:	1080201c 	xori	r2,r2,128
 80008a8:	10bfe004 	addi	r2,r2,-128
 80008ac:	100b883a 	mov	r5,r2
 80008b0:	01020074 	movhi	r4,2049
 80008b4:	210fc804 	addi	r4,r4,16160
 80008b8:	8002c980 	call	8002c98 <printf>
				//printSignedHex0((signed char) buf.Xdispl);
				printf("Y displacement: ");
 80008bc:	01020074 	movhi	r4,2049
 80008c0:	210fc904 	addi	r4,r4,16164
 80008c4:	8002c980 	call	8002c98 <printf>
				printf("%d ", (signed char) buf.Ydispl);
 80008c8:	e0bffbc3 	ldbu	r2,-17(fp)
 80008cc:	10803fcc 	andi	r2,r2,255
 80008d0:	1080201c 	xori	r2,r2,128
 80008d4:	10bfe004 	addi	r2,r2,-128
 80008d8:	100b883a 	mov	r5,r2
 80008dc:	01020074 	movhi	r4,2049
 80008e0:	210fc804 	addi	r4,r4,16160
 80008e4:	8002c980 	call	8002c98 <printf>
				//printSignedHex1((signed char) buf.Ydispl);
				printf("Buttons: ");
 80008e8:	01020074 	movhi	r4,2049
 80008ec:	210fce04 	addi	r4,r4,16184
 80008f0:	8002c980 	call	8002c98 <printf>
				printf("%x\n", buf.button);
 80008f4:	e0bffb43 	ldbu	r2,-19(fp)
 80008f8:	10803fcc 	andi	r2,r2,255
 80008fc:	100b883a 	mov	r5,r2
 8000900:	01020074 	movhi	r4,2049
 8000904:	210fd104 	addi	r4,r4,16196
 8000908:	8002c980 	call	8002c98 <printf>
 800090c:	003f8906 	br	8000734 <__alt_data_end+0xfc000734>
					setLED(0);
				else
					clearLED(0);
					*/
			}
		} else if (GetUsbTaskState() == USB_STATE_ERROR) {
 8000910:	80028680 	call	8002868 <GetUsbTaskState>
 8000914:	10803fcc 	andi	r2,r2,255
 8000918:	10803fd8 	cmpnei	r2,r2,255
 800091c:	1000081e 	bne	r2,zero,8000940 <usb_input+0x244>
			if (!errorflag) {
 8000920:	e0bff943 	ldbu	r2,-27(fp)
 8000924:	103f831e 	bne	r2,zero,8000734 <__alt_data_end+0xfc000734>
				errorflag = 1;
 8000928:	00800044 	movi	r2,1
 800092c:	e0bff945 	stb	r2,-27(fp)
				//clearLED(9);
				printf("USB Error State\n");
 8000930:	01020074 	movhi	r4,2049
 8000934:	210fd204 	addi	r4,r4,16200
 8000938:	8002db40 	call	8002db4 <puts>
 800093c:	003f7d06 	br	8000734 <__alt_data_end+0xfc000734>
				//print out string descriptor here
			}
		} else //not in USB running state
		{

			printf("USB task state: ");
 8000940:	01020074 	movhi	r4,2049
 8000944:	210fd604 	addi	r4,r4,16216
 8000948:	8002c980 	call	8002c98 <printf>
			printf("%x\n", GetUsbTaskState());
 800094c:	80028680 	call	8002868 <GetUsbTaskState>
 8000950:	10803fcc 	andi	r2,r2,255
 8000954:	100b883a 	mov	r5,r2
 8000958:	01020074 	movhi	r4,2049
 800095c:	210fd104 	addi	r4,r4,16196
 8000960:	8002c980 	call	8002c98 <printf>
			if (runningdebugflag) {	//previously running, reset USB hardware just to clear out any funky state, HS/FS etc
 8000964:	e0bff903 	ldbu	r2,-28(fp)
 8000968:	10000326 	beq	r2,zero,8000978 <usb_input+0x27c>
				runningdebugflag = 0;
 800096c:	e03ff905 	stb	zero,-28(fp)
				MAX3421E_init();
 8000970:	80018b00 	call	80018b0 <MAX3421E_init>
				USB_init();
 8000974:	80020600 	call	8002060 <USB_init>
			}
			errorflag = 0;
 8000978:	e03ff945 	stb	zero,-27(fp)
 800097c:	003f6d06 	br	8000734 <__alt_data_end+0xfc000734>
				device = GetDriverandReport();
			} else if (device == 1) {
				//run keyboard debug polling
				rcode = kbdPoll(&kbdbuf);
				if (rcode == hrNAK) {
					continue; //NAK means no new data
 8000980:	0001883a 	nop
 8000984:	003f6b06 	br	8000734 <__alt_data_end+0xfc000734>

			else if (device == 2) {
				rcode = mousePoll(&buf);
				if (rcode == hrNAK) {
					//NAK means no new data
					continue;
 8000988:	0001883a 	nop
			}
			errorflag = 0;
			//clearLED(9);
		}

	}
 800098c:	003f6906 	br	8000734 <__alt_data_end+0xfc000734>

08000990 <HIDMProbe>:
 8000990:	defff204 	addi	sp,sp,-56
 8000994:	dfc00d15 	stw	ra,52(sp)
 8000998:	df000c15 	stw	fp,48(sp)
 800099c:	df000c04 	addi	fp,sp,48
 80009a0:	2005883a 	mov	r2,r4
 80009a4:	e17fff15 	stw	r5,-4(fp)
 80009a8:	e0bffe05 	stb	r2,-8(fp)
 80009ac:	00820074 	movhi	r2,2049
 80009b0:	109e9904 	addi	r2,r2,31332
 80009b4:	e0bffa15 	stw	r2,-24(fp)
 80009b8:	00820074 	movhi	r2,2049
 80009bc:	109e9904 	addi	r2,r2,31332
 80009c0:	e0bffb15 	stw	r2,-20(fp)
 80009c4:	e0fffe03 	ldbu	r3,-8(fp)
 80009c8:	00820074 	movhi	r2,2049
 80009cc:	109e9904 	addi	r2,r2,31332
 80009d0:	d8800415 	stw	r2,16(sp)
 80009d4:	00800244 	movi	r2,9
 80009d8:	d8800315 	stw	r2,12(sp)
 80009dc:	d8000215 	stw	zero,8(sp)
 80009e0:	00800084 	movi	r2,2
 80009e4:	d8800115 	stw	r2,4(sp)
 80009e8:	d8000015 	stw	zero,0(sp)
 80009ec:	01c00184 	movi	r7,6
 80009f0:	01802004 	movi	r6,128
 80009f4:	000b883a 	mov	r5,zero
 80009f8:	1809883a 	mov	r4,r3
 80009fc:	8001aac0 	call	8001aac <XferCtrlReq>
 8000a00:	e0bffc05 	stb	r2,-16(fp)
 8000a04:	e0bffc03 	ldbu	r2,-16(fp)
 8000a08:	10000226 	beq	r2,zero,8000a14 <HIDMProbe+0x84>
 8000a0c:	0005883a 	mov	r2,zero
 8000a10:	0000dc06 	br	8000d84 <HIDMProbe+0x3f4>
 8000a14:	e0bffa17 	ldw	r2,-24(fp)
 8000a18:	1080008b 	ldhu	r2,2(r2)
 8000a1c:	10bfffcc 	andi	r2,r2,65535
 8000a20:	10804070 	cmpltui	r2,r2,257
 8000a24:	1000031e 	bne	r2,zero,8000a34 <HIDMProbe+0xa4>
 8000a28:	00804004 	movi	r2,256
 8000a2c:	e0bff90d 	sth	r2,-28(fp)
 8000a30:	00000306 	br	8000a40 <HIDMProbe+0xb0>
 8000a34:	e0bffa17 	ldw	r2,-24(fp)
 8000a38:	1080008b 	ldhu	r2,2(r2)
 8000a3c:	e0bff90d 	sth	r2,-28(fp)
 8000a40:	e13ffe03 	ldbu	r4,-8(fp)
 8000a44:	e0fff90b 	ldhu	r3,-28(fp)
 8000a48:	00820074 	movhi	r2,2049
 8000a4c:	109e9904 	addi	r2,r2,31332
 8000a50:	d8800415 	stw	r2,16(sp)
 8000a54:	d8c00315 	stw	r3,12(sp)
 8000a58:	d8000215 	stw	zero,8(sp)
 8000a5c:	00800084 	movi	r2,2
 8000a60:	d8800115 	stw	r2,4(sp)
 8000a64:	d8000015 	stw	zero,0(sp)
 8000a68:	01c00184 	movi	r7,6
 8000a6c:	01802004 	movi	r6,128
 8000a70:	000b883a 	mov	r5,zero
 8000a74:	8001aac0 	call	8001aac <XferCtrlReq>
 8000a78:	e0bffc05 	stb	r2,-16(fp)
 8000a7c:	e0bffc03 	ldbu	r2,-16(fp)
 8000a80:	10000226 	beq	r2,zero,8000a8c <HIDMProbe+0xfc>
 8000a84:	0005883a 	mov	r2,zero
 8000a88:	0000be06 	br	8000d84 <HIDMProbe+0x3f4>
 8000a8c:	e0bffa17 	ldw	r2,-24(fp)
 8000a90:	10800143 	ldbu	r2,5(r2)
 8000a94:	e0bffc45 	stb	r2,-15(fp)
 8000a98:	0000b306 	br	8000d68 <HIDMProbe+0x3d8>
 8000a9c:	e0bffa17 	ldw	r2,-24(fp)
 8000aa0:	10800043 	ldbu	r2,1(r2)
 8000aa4:	10803fcc 	andi	r2,r2,255
 8000aa8:	10800120 	cmpeqi	r2,r2,4
 8000aac:	1000091e 	bne	r2,zero,8000ad4 <HIDMProbe+0x144>
 8000ab0:	e0bffa17 	ldw	r2,-24(fp)
 8000ab4:	10800003 	ldbu	r2,0(r2)
 8000ab8:	10803fcc 	andi	r2,r2,255
 8000abc:	e0fffb17 	ldw	r3,-20(fp)
 8000ac0:	1885883a 	add	r2,r3,r2
 8000ac4:	e0bffb15 	stw	r2,-20(fp)
 8000ac8:	e0bffb17 	ldw	r2,-20(fp)
 8000acc:	e0bffa15 	stw	r2,-24(fp)
 8000ad0:	0000a506 	br	8000d68 <HIDMProbe+0x3d8>
 8000ad4:	e0bffa17 	ldw	r2,-24(fp)
 8000ad8:	10800143 	ldbu	r2,5(r2)
 8000adc:	e0bffc85 	stb	r2,-14(fp)
 8000ae0:	e0bffa17 	ldw	r2,-24(fp)
 8000ae4:	10800183 	ldbu	r2,6(r2)
 8000ae8:	e0bffcc5 	stb	r2,-13(fp)
 8000aec:	e0bffa17 	ldw	r2,-24(fp)
 8000af0:	108001c3 	ldbu	r2,7(r2)
 8000af4:	e0bffd05 	stb	r2,-12(fp)
 8000af8:	e0bffc83 	ldbu	r2,-14(fp)
 8000afc:	108000d8 	cmpnei	r2,r2,3
 8000b00:	1000971e 	bne	r2,zero,8000d60 <HIDMProbe+0x3d0>
 8000b04:	e0bffcc3 	ldbu	r2,-13(fp)
 8000b08:	10800058 	cmpnei	r2,r2,1
 8000b0c:	1000941e 	bne	r2,zero,8000d60 <HIDMProbe+0x3d0>
 8000b10:	e0bffd03 	ldbu	r2,-12(fp)
 8000b14:	10800098 	cmpnei	r2,r2,2
 8000b18:	1000911e 	bne	r2,zero,8000d60 <HIDMProbe+0x3d0>
 8000b1c:	e0fffe03 	ldbu	r3,-8(fp)
 8000b20:	00820074 	movhi	r2,2049
 8000b24:	109ed904 	addi	r2,r2,31588
 8000b28:	180690fa 	slli	r3,r3,3
 8000b2c:	10c5883a 	add	r2,r2,r3
 8000b30:	10800104 	addi	r2,r2,4
 8000b34:	00c00084 	movi	r3,2
 8000b38:	10c00005 	stb	r3,0(r2)
 8000b3c:	e0fffe03 	ldbu	r3,-8(fp)
 8000b40:	00820074 	movhi	r2,2049
 8000b44:	109ed904 	addi	r2,r2,31588
 8000b48:	180690fa 	slli	r3,r3,3
 8000b4c:	10c5883a 	add	r2,r2,r3
 8000b50:	10800017 	ldw	r2,0(r2)
 8000b54:	1080008b 	ldhu	r2,2(r2)
 8000b58:	e0bffd45 	stb	r2,-11(fp)
 8000b5c:	80011a00 	call	80011a0 <HID_init>
 8000b60:	e0fffe03 	ldbu	r3,-8(fp)
 8000b64:	00820074 	movhi	r2,2049
 8000b68:	109ed904 	addi	r2,r2,31588
 8000b6c:	180690fa 	slli	r3,r3,3
 8000b70:	10c7883a 	add	r3,r2,r3
 8000b74:	00820074 	movhi	r2,2049
 8000b78:	109e8504 	addi	r2,r2,31252
 8000b7c:	18800015 	stw	r2,0(r3)
 8000b80:	e0fffe03 	ldbu	r3,-8(fp)
 8000b84:	00820074 	movhi	r2,2049
 8000b88:	109ed904 	addi	r2,r2,31588
 8000b8c:	180690fa 	slli	r3,r3,3
 8000b90:	10c5883a 	add	r2,r2,r3
 8000b94:	10800017 	ldw	r2,0(r2)
 8000b98:	e0fffd43 	ldbu	r3,-11(fp)
 8000b9c:	10c0008d 	sth	r3,2(r2)
 8000ba0:	e0bffa17 	ldw	r2,-24(fp)
 8000ba4:	10800083 	ldbu	r2,2(r2)
 8000ba8:	d0a6e345 	stb	r2,-25715(gp)
 8000bac:	e0bffe03 	ldbu	r2,-8(fp)
 8000bb0:	d0a6e305 	stb	r2,-25716(gp)
 8000bb4:	e0bffa17 	ldw	r2,-24(fp)
 8000bb8:	10800003 	ldbu	r2,0(r2)
 8000bbc:	10803fcc 	andi	r2,r2,255
 8000bc0:	e0fffb17 	ldw	r3,-20(fp)
 8000bc4:	1885883a 	add	r2,r3,r2
 8000bc8:	e0bffb15 	stw	r2,-20(fp)
 8000bcc:	e0bffb17 	ldw	r2,-20(fp)
 8000bd0:	e0bffa15 	stw	r2,-24(fp)
 8000bd4:	00005b06 	br	8000d44 <HIDMProbe+0x3b4>
 8000bd8:	e0bffa17 	ldw	r2,-24(fp)
 8000bdc:	10800043 	ldbu	r2,1(r2)
 8000be0:	10803fcc 	andi	r2,r2,255
 8000be4:	10800160 	cmpeqi	r2,r2,5
 8000be8:	1000091e 	bne	r2,zero,8000c10 <HIDMProbe+0x280>
 8000bec:	e0bffa17 	ldw	r2,-24(fp)
 8000bf0:	10800003 	ldbu	r2,0(r2)
 8000bf4:	10803fcc 	andi	r2,r2,255
 8000bf8:	e0fffb17 	ldw	r3,-20(fp)
 8000bfc:	1885883a 	add	r2,r3,r2
 8000c00:	e0bffb15 	stw	r2,-20(fp)
 8000c04:	e0bffb17 	ldw	r2,-20(fp)
 8000c08:	e0bffa15 	stw	r2,-24(fp)
 8000c0c:	00004d06 	br	8000d44 <HIDMProbe+0x3b4>
 8000c10:	e0fffe03 	ldbu	r3,-8(fp)
 8000c14:	00820074 	movhi	r2,2049
 8000c18:	109ed904 	addi	r2,r2,31588
 8000c1c:	180690fa 	slli	r3,r3,3
 8000c20:	10c5883a 	add	r2,r2,r3
 8000c24:	10800017 	ldw	r2,0(r2)
 8000c28:	10800204 	addi	r2,r2,8
 8000c2c:	e0fffa17 	ldw	r3,-24(fp)
 8000c30:	18c00083 	ldbu	r3,2(r3)
 8000c34:	10c00005 	stb	r3,0(r2)
 8000c38:	e0fffe03 	ldbu	r3,-8(fp)
 8000c3c:	00820074 	movhi	r2,2049
 8000c40:	109ed904 	addi	r2,r2,31588
 8000c44:	180690fa 	slli	r3,r3,3
 8000c48:	10c5883a 	add	r2,r2,r3
 8000c4c:	10800017 	ldw	r2,0(r2)
 8000c50:	10800204 	addi	r2,r2,8
 8000c54:	e0fffa17 	ldw	r3,-24(fp)
 8000c58:	18c000c3 	ldbu	r3,3(r3)
 8000c5c:	10c00045 	stb	r3,1(r2)
 8000c60:	e0fffe03 	ldbu	r3,-8(fp)
 8000c64:	00820074 	movhi	r2,2049
 8000c68:	109ed904 	addi	r2,r2,31588
 8000c6c:	180690fa 	slli	r3,r3,3
 8000c70:	10c5883a 	add	r2,r2,r3
 8000c74:	10800017 	ldw	r2,0(r2)
 8000c78:	10800204 	addi	r2,r2,8
 8000c7c:	e0fffa17 	ldw	r3,-24(fp)
 8000c80:	18c0010b 	ldhu	r3,4(r3)
 8000c84:	10c0008d 	sth	r3,2(r2)
 8000c88:	e0fffe03 	ldbu	r3,-8(fp)
 8000c8c:	00820074 	movhi	r2,2049
 8000c90:	109ed904 	addi	r2,r2,31588
 8000c94:	180690fa 	slli	r3,r3,3
 8000c98:	10c5883a 	add	r2,r2,r3
 8000c9c:	10800017 	ldw	r2,0(r2)
 8000ca0:	10800204 	addi	r2,r2,8
 8000ca4:	e0fffa17 	ldw	r3,-24(fp)
 8000ca8:	18c00183 	ldbu	r3,6(r3)
 8000cac:	10c00105 	stb	r3,4(r2)
 8000cb0:	e0fffe03 	ldbu	r3,-8(fp)
 8000cb4:	e0bffc43 	ldbu	r2,-15(fp)
 8000cb8:	d8000415 	stw	zero,16(sp)
 8000cbc:	d8000315 	stw	zero,12(sp)
 8000cc0:	d8000215 	stw	zero,8(sp)
 8000cc4:	d8000115 	stw	zero,4(sp)
 8000cc8:	d8800015 	stw	r2,0(sp)
 8000ccc:	01c00244 	movi	r7,9
 8000cd0:	000d883a 	mov	r6,zero
 8000cd4:	000b883a 	mov	r5,zero
 8000cd8:	1809883a 	mov	r4,r3
 8000cdc:	8001aac0 	call	8001aac <XferCtrlReq>
 8000ce0:	e0bffc05 	stb	r2,-16(fp)
 8000ce4:	e0bffc03 	ldbu	r2,-16(fp)
 8000ce8:	10000226 	beq	r2,zero,8000cf4 <HIDMProbe+0x364>
 8000cec:	0005883a 	mov	r2,zero
 8000cf0:	00002406 	br	8000d84 <HIDMProbe+0x3f4>
 8000cf4:	e0fffe03 	ldbu	r3,-8(fp)
 8000cf8:	d0a6e343 	ldbu	r2,-25715(gp)
 8000cfc:	10803fcc 	andi	r2,r2,255
 8000d00:	d8000415 	stw	zero,16(sp)
 8000d04:	d8000315 	stw	zero,12(sp)
 8000d08:	d8800215 	stw	r2,8(sp)
 8000d0c:	d8000115 	stw	zero,4(sp)
 8000d10:	d8000015 	stw	zero,0(sp)
 8000d14:	01c002c4 	movi	r7,11
 8000d18:	01800844 	movi	r6,33
 8000d1c:	000b883a 	mov	r5,zero
 8000d20:	1809883a 	mov	r4,r3
 8000d24:	8001aac0 	call	8001aac <XferCtrlReq>
 8000d28:	e0bffc05 	stb	r2,-16(fp)
 8000d2c:	e0bffc03 	ldbu	r2,-16(fp)
 8000d30:	10000226 	beq	r2,zero,8000d3c <HIDMProbe+0x3ac>
 8000d34:	0005883a 	mov	r2,zero
 8000d38:	00001206 	br	8000d84 <HIDMProbe+0x3f4>
 8000d3c:	00800044 	movi	r2,1
 8000d40:	00001006 	br	8000d84 <HIDMProbe+0x3f4>
 8000d44:	e0fff90b 	ldhu	r3,-28(fp)
 8000d48:	00820074 	movhi	r2,2049
 8000d4c:	109e9904 	addi	r2,r2,31332
 8000d50:	1885883a 	add	r2,r3,r2
 8000d54:	e0fffb17 	ldw	r3,-20(fp)
 8000d58:	18bf9f36 	bltu	r3,r2,8000bd8 <__alt_data_end+0xfc000bd8>
 8000d5c:	00000206 	br	8000d68 <HIDMProbe+0x3d8>
 8000d60:	0005883a 	mov	r2,zero
 8000d64:	00000706 	br	8000d84 <HIDMProbe+0x3f4>
 8000d68:	e0fff90b 	ldhu	r3,-28(fp)
 8000d6c:	00820074 	movhi	r2,2049
 8000d70:	109e9904 	addi	r2,r2,31332
 8000d74:	1885883a 	add	r2,r3,r2
 8000d78:	e0fffb17 	ldw	r3,-20(fp)
 8000d7c:	18bf4736 	bltu	r3,r2,8000a9c <__alt_data_end+0xfc000a9c>
 8000d80:	0005883a 	mov	r2,zero
 8000d84:	e037883a 	mov	sp,fp
 8000d88:	dfc00117 	ldw	ra,4(sp)
 8000d8c:	df000017 	ldw	fp,0(sp)
 8000d90:	dec00204 	addi	sp,sp,8
 8000d94:	f800283a 	ret

08000d98 <HIDKProbe>:
 8000d98:	defff204 	addi	sp,sp,-56
 8000d9c:	dfc00d15 	stw	ra,52(sp)
 8000da0:	df000c15 	stw	fp,48(sp)
 8000da4:	df000c04 	addi	fp,sp,48
 8000da8:	2005883a 	mov	r2,r4
 8000dac:	e17fff15 	stw	r5,-4(fp)
 8000db0:	e0bffe05 	stb	r2,-8(fp)
 8000db4:	00820074 	movhi	r2,2049
 8000db8:	109e9904 	addi	r2,r2,31332
 8000dbc:	e0bffa15 	stw	r2,-24(fp)
 8000dc0:	00820074 	movhi	r2,2049
 8000dc4:	109e9904 	addi	r2,r2,31332
 8000dc8:	e0bffb15 	stw	r2,-20(fp)
 8000dcc:	e0fffe03 	ldbu	r3,-8(fp)
 8000dd0:	00820074 	movhi	r2,2049
 8000dd4:	109e9904 	addi	r2,r2,31332
 8000dd8:	d8800415 	stw	r2,16(sp)
 8000ddc:	00800244 	movi	r2,9
 8000de0:	d8800315 	stw	r2,12(sp)
 8000de4:	d8000215 	stw	zero,8(sp)
 8000de8:	00800084 	movi	r2,2
 8000dec:	d8800115 	stw	r2,4(sp)
 8000df0:	d8000015 	stw	zero,0(sp)
 8000df4:	01c00184 	movi	r7,6
 8000df8:	01802004 	movi	r6,128
 8000dfc:	000b883a 	mov	r5,zero
 8000e00:	1809883a 	mov	r4,r3
 8000e04:	8001aac0 	call	8001aac <XferCtrlReq>
 8000e08:	e0bffc05 	stb	r2,-16(fp)
 8000e0c:	e0bffc03 	ldbu	r2,-16(fp)
 8000e10:	10000226 	beq	r2,zero,8000e1c <HIDKProbe+0x84>
 8000e14:	0005883a 	mov	r2,zero
 8000e18:	0000dc06 	br	800118c <HIDKProbe+0x3f4>
 8000e1c:	e0bffa17 	ldw	r2,-24(fp)
 8000e20:	1080008b 	ldhu	r2,2(r2)
 8000e24:	10bfffcc 	andi	r2,r2,65535
 8000e28:	10804070 	cmpltui	r2,r2,257
 8000e2c:	1000031e 	bne	r2,zero,8000e3c <HIDKProbe+0xa4>
 8000e30:	00804004 	movi	r2,256
 8000e34:	e0bff90d 	sth	r2,-28(fp)
 8000e38:	00000306 	br	8000e48 <HIDKProbe+0xb0>
 8000e3c:	e0bffa17 	ldw	r2,-24(fp)
 8000e40:	1080008b 	ldhu	r2,2(r2)
 8000e44:	e0bff90d 	sth	r2,-28(fp)
 8000e48:	e13ffe03 	ldbu	r4,-8(fp)
 8000e4c:	e0fff90b 	ldhu	r3,-28(fp)
 8000e50:	00820074 	movhi	r2,2049
 8000e54:	109e9904 	addi	r2,r2,31332
 8000e58:	d8800415 	stw	r2,16(sp)
 8000e5c:	d8c00315 	stw	r3,12(sp)
 8000e60:	d8000215 	stw	zero,8(sp)
 8000e64:	00800084 	movi	r2,2
 8000e68:	d8800115 	stw	r2,4(sp)
 8000e6c:	d8000015 	stw	zero,0(sp)
 8000e70:	01c00184 	movi	r7,6
 8000e74:	01802004 	movi	r6,128
 8000e78:	000b883a 	mov	r5,zero
 8000e7c:	8001aac0 	call	8001aac <XferCtrlReq>
 8000e80:	e0bffc05 	stb	r2,-16(fp)
 8000e84:	e0bffc03 	ldbu	r2,-16(fp)
 8000e88:	10000226 	beq	r2,zero,8000e94 <HIDKProbe+0xfc>
 8000e8c:	0005883a 	mov	r2,zero
 8000e90:	0000be06 	br	800118c <HIDKProbe+0x3f4>
 8000e94:	e0bffa17 	ldw	r2,-24(fp)
 8000e98:	10800143 	ldbu	r2,5(r2)
 8000e9c:	e0bffc45 	stb	r2,-15(fp)
 8000ea0:	0000b306 	br	8001170 <HIDKProbe+0x3d8>
 8000ea4:	e0bffa17 	ldw	r2,-24(fp)
 8000ea8:	10800043 	ldbu	r2,1(r2)
 8000eac:	10803fcc 	andi	r2,r2,255
 8000eb0:	10800120 	cmpeqi	r2,r2,4
 8000eb4:	1000091e 	bne	r2,zero,8000edc <HIDKProbe+0x144>
 8000eb8:	e0bffa17 	ldw	r2,-24(fp)
 8000ebc:	10800003 	ldbu	r2,0(r2)
 8000ec0:	10803fcc 	andi	r2,r2,255
 8000ec4:	e0fffb17 	ldw	r3,-20(fp)
 8000ec8:	1885883a 	add	r2,r3,r2
 8000ecc:	e0bffb15 	stw	r2,-20(fp)
 8000ed0:	e0bffb17 	ldw	r2,-20(fp)
 8000ed4:	e0bffa15 	stw	r2,-24(fp)
 8000ed8:	0000a506 	br	8001170 <HIDKProbe+0x3d8>
 8000edc:	e0bffa17 	ldw	r2,-24(fp)
 8000ee0:	10800143 	ldbu	r2,5(r2)
 8000ee4:	e0bffc85 	stb	r2,-14(fp)
 8000ee8:	e0bffa17 	ldw	r2,-24(fp)
 8000eec:	10800183 	ldbu	r2,6(r2)
 8000ef0:	e0bffcc5 	stb	r2,-13(fp)
 8000ef4:	e0bffa17 	ldw	r2,-24(fp)
 8000ef8:	108001c3 	ldbu	r2,7(r2)
 8000efc:	e0bffd05 	stb	r2,-12(fp)
 8000f00:	e0bffc83 	ldbu	r2,-14(fp)
 8000f04:	108000d8 	cmpnei	r2,r2,3
 8000f08:	1000971e 	bne	r2,zero,8001168 <HIDKProbe+0x3d0>
 8000f0c:	e0bffcc3 	ldbu	r2,-13(fp)
 8000f10:	10800058 	cmpnei	r2,r2,1
 8000f14:	1000941e 	bne	r2,zero,8001168 <HIDKProbe+0x3d0>
 8000f18:	e0bffd03 	ldbu	r2,-12(fp)
 8000f1c:	10800058 	cmpnei	r2,r2,1
 8000f20:	1000911e 	bne	r2,zero,8001168 <HIDKProbe+0x3d0>
 8000f24:	e0fffe03 	ldbu	r3,-8(fp)
 8000f28:	00820074 	movhi	r2,2049
 8000f2c:	109ed904 	addi	r2,r2,31588
 8000f30:	180690fa 	slli	r3,r3,3
 8000f34:	10c5883a 	add	r2,r2,r3
 8000f38:	10800104 	addi	r2,r2,4
 8000f3c:	00c00044 	movi	r3,1
 8000f40:	10c00005 	stb	r3,0(r2)
 8000f44:	e0fffe03 	ldbu	r3,-8(fp)
 8000f48:	00820074 	movhi	r2,2049
 8000f4c:	109ed904 	addi	r2,r2,31588
 8000f50:	180690fa 	slli	r3,r3,3
 8000f54:	10c5883a 	add	r2,r2,r3
 8000f58:	10800017 	ldw	r2,0(r2)
 8000f5c:	1080008b 	ldhu	r2,2(r2)
 8000f60:	e0bffd45 	stb	r2,-11(fp)
 8000f64:	80011a00 	call	80011a0 <HID_init>
 8000f68:	e0fffe03 	ldbu	r3,-8(fp)
 8000f6c:	00820074 	movhi	r2,2049
 8000f70:	109ed904 	addi	r2,r2,31588
 8000f74:	180690fa 	slli	r3,r3,3
 8000f78:	10c7883a 	add	r3,r2,r3
 8000f7c:	00820074 	movhi	r2,2049
 8000f80:	109e8504 	addi	r2,r2,31252
 8000f84:	18800015 	stw	r2,0(r3)
 8000f88:	e0fffe03 	ldbu	r3,-8(fp)
 8000f8c:	00820074 	movhi	r2,2049
 8000f90:	109ed904 	addi	r2,r2,31588
 8000f94:	180690fa 	slli	r3,r3,3
 8000f98:	10c5883a 	add	r2,r2,r3
 8000f9c:	10800017 	ldw	r2,0(r2)
 8000fa0:	e0fffd43 	ldbu	r3,-11(fp)
 8000fa4:	10c0008d 	sth	r3,2(r2)
 8000fa8:	e0bffa17 	ldw	r2,-24(fp)
 8000fac:	10800083 	ldbu	r2,2(r2)
 8000fb0:	d0a6e345 	stb	r2,-25715(gp)
 8000fb4:	e0bffe03 	ldbu	r2,-8(fp)
 8000fb8:	d0a6e305 	stb	r2,-25716(gp)
 8000fbc:	e0bffa17 	ldw	r2,-24(fp)
 8000fc0:	10800003 	ldbu	r2,0(r2)
 8000fc4:	10803fcc 	andi	r2,r2,255
 8000fc8:	e0fffb17 	ldw	r3,-20(fp)
 8000fcc:	1885883a 	add	r2,r3,r2
 8000fd0:	e0bffb15 	stw	r2,-20(fp)
 8000fd4:	e0bffb17 	ldw	r2,-20(fp)
 8000fd8:	e0bffa15 	stw	r2,-24(fp)
 8000fdc:	00005b06 	br	800114c <HIDKProbe+0x3b4>
 8000fe0:	e0bffa17 	ldw	r2,-24(fp)
 8000fe4:	10800043 	ldbu	r2,1(r2)
 8000fe8:	10803fcc 	andi	r2,r2,255
 8000fec:	10800160 	cmpeqi	r2,r2,5
 8000ff0:	1000091e 	bne	r2,zero,8001018 <HIDKProbe+0x280>
 8000ff4:	e0bffa17 	ldw	r2,-24(fp)
 8000ff8:	10800003 	ldbu	r2,0(r2)
 8000ffc:	10803fcc 	andi	r2,r2,255
 8001000:	e0fffb17 	ldw	r3,-20(fp)
 8001004:	1885883a 	add	r2,r3,r2
 8001008:	e0bffb15 	stw	r2,-20(fp)
 800100c:	e0bffb17 	ldw	r2,-20(fp)
 8001010:	e0bffa15 	stw	r2,-24(fp)
 8001014:	00004d06 	br	800114c <HIDKProbe+0x3b4>
 8001018:	e0fffe03 	ldbu	r3,-8(fp)
 800101c:	00820074 	movhi	r2,2049
 8001020:	109ed904 	addi	r2,r2,31588
 8001024:	180690fa 	slli	r3,r3,3
 8001028:	10c5883a 	add	r2,r2,r3
 800102c:	10800017 	ldw	r2,0(r2)
 8001030:	10800204 	addi	r2,r2,8
 8001034:	e0fffa17 	ldw	r3,-24(fp)
 8001038:	18c00083 	ldbu	r3,2(r3)
 800103c:	10c00005 	stb	r3,0(r2)
 8001040:	e0fffe03 	ldbu	r3,-8(fp)
 8001044:	00820074 	movhi	r2,2049
 8001048:	109ed904 	addi	r2,r2,31588
 800104c:	180690fa 	slli	r3,r3,3
 8001050:	10c5883a 	add	r2,r2,r3
 8001054:	10800017 	ldw	r2,0(r2)
 8001058:	10800204 	addi	r2,r2,8
 800105c:	e0fffa17 	ldw	r3,-24(fp)
 8001060:	18c000c3 	ldbu	r3,3(r3)
 8001064:	10c00045 	stb	r3,1(r2)
 8001068:	e0fffe03 	ldbu	r3,-8(fp)
 800106c:	00820074 	movhi	r2,2049
 8001070:	109ed904 	addi	r2,r2,31588
 8001074:	180690fa 	slli	r3,r3,3
 8001078:	10c5883a 	add	r2,r2,r3
 800107c:	10800017 	ldw	r2,0(r2)
 8001080:	10800204 	addi	r2,r2,8
 8001084:	e0fffa17 	ldw	r3,-24(fp)
 8001088:	18c0010b 	ldhu	r3,4(r3)
 800108c:	10c0008d 	sth	r3,2(r2)
 8001090:	e0fffe03 	ldbu	r3,-8(fp)
 8001094:	00820074 	movhi	r2,2049
 8001098:	109ed904 	addi	r2,r2,31588
 800109c:	180690fa 	slli	r3,r3,3
 80010a0:	10c5883a 	add	r2,r2,r3
 80010a4:	10800017 	ldw	r2,0(r2)
 80010a8:	10800204 	addi	r2,r2,8
 80010ac:	e0fffa17 	ldw	r3,-24(fp)
 80010b0:	18c00183 	ldbu	r3,6(r3)
 80010b4:	10c00105 	stb	r3,4(r2)
 80010b8:	e0fffe03 	ldbu	r3,-8(fp)
 80010bc:	e0bffc43 	ldbu	r2,-15(fp)
 80010c0:	d8000415 	stw	zero,16(sp)
 80010c4:	d8000315 	stw	zero,12(sp)
 80010c8:	d8000215 	stw	zero,8(sp)
 80010cc:	d8000115 	stw	zero,4(sp)
 80010d0:	d8800015 	stw	r2,0(sp)
 80010d4:	01c00244 	movi	r7,9
 80010d8:	000d883a 	mov	r6,zero
 80010dc:	000b883a 	mov	r5,zero
 80010e0:	1809883a 	mov	r4,r3
 80010e4:	8001aac0 	call	8001aac <XferCtrlReq>
 80010e8:	e0bffc05 	stb	r2,-16(fp)
 80010ec:	e0bffc03 	ldbu	r2,-16(fp)
 80010f0:	10000226 	beq	r2,zero,80010fc <HIDKProbe+0x364>
 80010f4:	0005883a 	mov	r2,zero
 80010f8:	00002406 	br	800118c <HIDKProbe+0x3f4>
 80010fc:	e0fffe03 	ldbu	r3,-8(fp)
 8001100:	d0a6e343 	ldbu	r2,-25715(gp)
 8001104:	10803fcc 	andi	r2,r2,255
 8001108:	d8000415 	stw	zero,16(sp)
 800110c:	d8000315 	stw	zero,12(sp)
 8001110:	d8800215 	stw	r2,8(sp)
 8001114:	d8000115 	stw	zero,4(sp)
 8001118:	d8000015 	stw	zero,0(sp)
 800111c:	01c002c4 	movi	r7,11
 8001120:	01800844 	movi	r6,33
 8001124:	000b883a 	mov	r5,zero
 8001128:	1809883a 	mov	r4,r3
 800112c:	8001aac0 	call	8001aac <XferCtrlReq>
 8001130:	e0bffc05 	stb	r2,-16(fp)
 8001134:	e0bffc03 	ldbu	r2,-16(fp)
 8001138:	10000226 	beq	r2,zero,8001144 <HIDKProbe+0x3ac>
 800113c:	0005883a 	mov	r2,zero
 8001140:	00001206 	br	800118c <HIDKProbe+0x3f4>
 8001144:	00800044 	movi	r2,1
 8001148:	00001006 	br	800118c <HIDKProbe+0x3f4>
 800114c:	e0fff90b 	ldhu	r3,-28(fp)
 8001150:	00820074 	movhi	r2,2049
 8001154:	109e9904 	addi	r2,r2,31332
 8001158:	1885883a 	add	r2,r3,r2
 800115c:	e0fffb17 	ldw	r3,-20(fp)
 8001160:	18bf9f36 	bltu	r3,r2,8000fe0 <__alt_data_end+0xfc000fe0>
 8001164:	00000206 	br	8001170 <HIDKProbe+0x3d8>
 8001168:	0005883a 	mov	r2,zero
 800116c:	00000706 	br	800118c <HIDKProbe+0x3f4>
 8001170:	e0fff90b 	ldhu	r3,-28(fp)
 8001174:	00820074 	movhi	r2,2049
 8001178:	109e9904 	addi	r2,r2,31332
 800117c:	1885883a 	add	r2,r3,r2
 8001180:	e0fffb17 	ldw	r3,-20(fp)
 8001184:	18bf4736 	bltu	r3,r2,8000ea4 <__alt_data_end+0xfc000ea4>
 8001188:	0005883a 	mov	r2,zero
 800118c:	e037883a 	mov	sp,fp
 8001190:	dfc00117 	ldw	ra,4(sp)
 8001194:	df000017 	ldw	fp,0(sp)
 8001198:	dec00204 	addi	sp,sp,8
 800119c:	f800283a 	ret

080011a0 <HID_init>:
 80011a0:	deffff04 	addi	sp,sp,-4
 80011a4:	df000015 	stw	fp,0(sp)
 80011a8:	d839883a 	mov	fp,sp
 80011ac:	00820074 	movhi	r2,2049
 80011b0:	109e8504 	addi	r2,r2,31252
 80011b4:	00c01004 	movi	r3,64
 80011b8:	10c00345 	stb	r3,13(r2)
 80011bc:	00820074 	movhi	r2,2049
 80011c0:	109e8504 	addi	r2,r2,31252
 80011c4:	00c00404 	movi	r3,16
 80011c8:	10c00385 	stb	r3,14(r2)
 80011cc:	0001883a 	nop
 80011d0:	e037883a 	mov	sp,fp
 80011d4:	df000017 	ldw	fp,0(sp)
 80011d8:	dec00104 	addi	sp,sp,4
 80011dc:	f800283a 	ret

080011e0 <mousePoll>:
 80011e0:	defffb04 	addi	sp,sp,-20
 80011e4:	dfc00415 	stw	ra,16(sp)
 80011e8:	df000315 	stw	fp,12(sp)
 80011ec:	df000304 	addi	fp,sp,12
 80011f0:	e13fff15 	stw	r4,-4(fp)
 80011f4:	d0a6e303 	ldbu	r2,-25716(gp)
 80011f8:	10803fcc 	andi	r2,r2,255
 80011fc:	100b883a 	mov	r5,r2
 8001200:	01003804 	movi	r4,224
 8001204:	80013bc0 	call	80013bc <MAXreg_wr>
 8001208:	d0a6e303 	ldbu	r2,-25716(gp)
 800120c:	11003fcc 	andi	r4,r2,255
 8001210:	d0a6e303 	ldbu	r2,-25716(gp)
 8001214:	10c03fcc 	andi	r3,r2,255
 8001218:	00820074 	movhi	r2,2049
 800121c:	109ed904 	addi	r2,r2,31588
 8001220:	180690fa 	slli	r3,r3,3
 8001224:	10c5883a 	add	r2,r2,r3
 8001228:	10800017 	ldw	r2,0(r2)
 800122c:	10800204 	addi	r2,r2,8
 8001230:	1080008b 	ldhu	r2,2(r2)
 8001234:	10803fcc 	andi	r2,r2,255
 8001238:	d8800015 	stw	r2,0(sp)
 800123c:	e1ffff17 	ldw	r7,-4(fp)
 8001240:	01800204 	movi	r6,8
 8001244:	01400044 	movi	r5,1
 8001248:	8001ed00 	call	8001ed0 <XferInTransfer>
 800124c:	e0bffe05 	stb	r2,-8(fp)
 8001250:	e0bffe03 	ldbu	r2,-8(fp)
 8001254:	e037883a 	mov	sp,fp
 8001258:	dfc00117 	ldw	ra,4(sp)
 800125c:	df000017 	ldw	fp,0(sp)
 8001260:	dec00204 	addi	sp,sp,8
 8001264:	f800283a 	ret

08001268 <kbdPoll>:
 8001268:	defffb04 	addi	sp,sp,-20
 800126c:	dfc00415 	stw	ra,16(sp)
 8001270:	df000315 	stw	fp,12(sp)
 8001274:	df000304 	addi	fp,sp,12
 8001278:	e13fff15 	stw	r4,-4(fp)
 800127c:	d0a6e303 	ldbu	r2,-25716(gp)
 8001280:	10803fcc 	andi	r2,r2,255
 8001284:	100b883a 	mov	r5,r2
 8001288:	01003804 	movi	r4,224
 800128c:	80013bc0 	call	80013bc <MAXreg_wr>
 8001290:	d0a6e303 	ldbu	r2,-25716(gp)
 8001294:	11003fcc 	andi	r4,r2,255
 8001298:	d0a6e303 	ldbu	r2,-25716(gp)
 800129c:	10c03fcc 	andi	r3,r2,255
 80012a0:	00820074 	movhi	r2,2049
 80012a4:	109ed904 	addi	r2,r2,31588
 80012a8:	180690fa 	slli	r3,r3,3
 80012ac:	10c5883a 	add	r2,r2,r3
 80012b0:	10800017 	ldw	r2,0(r2)
 80012b4:	10800204 	addi	r2,r2,8
 80012b8:	1080008b 	ldhu	r2,2(r2)
 80012bc:	10803fcc 	andi	r2,r2,255
 80012c0:	d8800015 	stw	r2,0(sp)
 80012c4:	e1ffff17 	ldw	r7,-4(fp)
 80012c8:	01800204 	movi	r6,8
 80012cc:	01400044 	movi	r5,1
 80012d0:	8001ed00 	call	8001ed0 <XferInTransfer>
 80012d4:	e0bffe05 	stb	r2,-8(fp)
 80012d8:	e0bffe03 	ldbu	r2,-8(fp)
 80012dc:	e037883a 	mov	sp,fp
 80012e0:	dfc00117 	ldw	ra,4(sp)
 80012e4:	df000017 	ldw	fp,0(sp)
 80012e8:	dec00204 	addi	sp,sp,8
 80012ec:	f800283a 	ret

080012f0 <HIDMEventHandler>:
 80012f0:	defffb04 	addi	sp,sp,-20
 80012f4:	df000415 	stw	fp,16(sp)
 80012f8:	df000404 	addi	fp,sp,16
 80012fc:	2007883a 	mov	r3,r4
 8001300:	2805883a 	mov	r2,r5
 8001304:	e1bffe15 	stw	r6,-8(fp)
 8001308:	e1ffff15 	stw	r7,-4(fp)
 800130c:	e0fffc05 	stb	r3,-16(fp)
 8001310:	e0bffd05 	stb	r2,-12(fp)
 8001314:	0005883a 	mov	r2,zero
 8001318:	e037883a 	mov	sp,fp
 800131c:	df000017 	ldw	fp,0(sp)
 8001320:	dec00104 	addi	sp,sp,4
 8001324:	f800283a 	ret

08001328 <HIDKEventHandler>:
 8001328:	defffb04 	addi	sp,sp,-20
 800132c:	df000415 	stw	fp,16(sp)
 8001330:	df000404 	addi	fp,sp,16
 8001334:	2007883a 	mov	r3,r4
 8001338:	2805883a 	mov	r2,r5
 800133c:	e1bffe15 	stw	r6,-8(fp)
 8001340:	e1ffff15 	stw	r7,-4(fp)
 8001344:	e0fffc05 	stb	r3,-16(fp)
 8001348:	e0bffd05 	stb	r2,-12(fp)
 800134c:	0005883a 	mov	r2,zero
 8001350:	e037883a 	mov	sp,fp
 8001354:	df000017 	ldw	fp,0(sp)
 8001358:	dec00104 	addi	sp,sp,4
 800135c:	f800283a 	ret

08001360 <SPI_init>:
//variables and data structures
//External variables
extern BYTE usb_task_state;

/* Functions    */
void SPI_init(BYTE sync_mode, BYTE bus_mode, BYTE smp_phase) {
 8001360:	defffc04 	addi	sp,sp,-16
 8001364:	df000315 	stw	fp,12(sp)
 8001368:	df000304 	addi	fp,sp,12
 800136c:	2807883a 	mov	r3,r5
 8001370:	3005883a 	mov	r2,r6
 8001374:	e13ffd05 	stb	r4,-12(fp)
 8001378:	e0fffe05 	stb	r3,-8(fp)
 800137c:	e0bfff05 	stb	r2,-4(fp)
	//Don't need to initialize SPI port, already ready to go with BSP
}
 8001380:	0001883a 	nop
 8001384:	e037883a 	mov	sp,fp
 8001388:	df000017 	ldw	fp,0(sp)
 800138c:	dec00104 	addi	sp,sp,4
 8001390:	f800283a 	ret

08001394 <SPI_wr>:

//writes single byte to MAX3421E via SPI, simultanously reads status register and returns it
BYTE SPI_wr(BYTE data) {
 8001394:	defffe04 	addi	sp,sp,-8
 8001398:	df000115 	stw	fp,4(sp)
 800139c:	df000104 	addi	fp,sp,4
 80013a0:	2005883a 	mov	r2,r4
 80013a4:	e0bfff05 	stb	r2,-4(fp)
	//This function is never used by the code, so you do not need to fill it in

}
 80013a8:	0001883a 	nop
 80013ac:	e037883a 	mov	sp,fp
 80013b0:	df000017 	ldw	fp,0(sp)
 80013b4:	dec00104 	addi	sp,sp,4
 80013b8:	f800283a 	ret

080013bc <MAXreg_wr>:
//writes register to MAX3421E via SPI
void MAXreg_wr(BYTE reg, BYTE val) {
 80013bc:	defff704 	addi	sp,sp,-36
 80013c0:	dfc00815 	stw	ra,32(sp)
 80013c4:	df000715 	stw	fp,28(sp)
 80013c8:	df000704 	addi	fp,sp,28
 80013cc:	2007883a 	mov	r3,r4
 80013d0:	2805883a 	mov	r2,r5
 80013d4:	e0fffe05 	stb	r3,-8(fp)
 80013d8:	e0bfff05 	stb	r2,-4(fp)
	//write val via SPI
	//read return code from SPI peripheral (see Intel documentation) 
	//if return code < 0 print an error
	//deselect MAX3421E (may not be necessary if you are using SPI peripheral)
	BYTE data[2];
	data[0] = reg | 0x02; //this is the same as saying reg + 2
 80013dc:	e0bffe03 	ldbu	r2,-8(fp)
 80013e0:	10800094 	ori	r2,r2,2
 80013e4:	e0bffd05 	stb	r2,-12(fp)
	data[1] = val;
 80013e8:	e0bfff03 	ldbu	r2,-4(fp)
 80013ec:	e0bffd45 	stb	r2,-11(fp)
	return_code = alt_avalon_spi_command( SPI_USB_BASE, 0, 2, data, 0, 0, 0);
 80013f0:	e0bffd04 	addi	r2,fp,-12
 80013f4:	d8000215 	stw	zero,8(sp)
 80013f8:	d8000115 	stw	zero,4(sp)
 80013fc:	d8000015 	stw	zero,0(sp)
 8001400:	100f883a 	mov	r7,r2
 8001404:	01800084 	movi	r6,2
 8001408:	000b883a 	mov	r5,zero
 800140c:	01042804 	movi	r4,4256
 8001410:	80113140 	call	8011314 <alt_avalon_spi_command>
 8001414:	e0bffc15 	stw	r2,-16(fp)
	//alt_printf( "W %x %x check 0\n", reg, val );

	if (return_code < 0)
 8001418:	e0bffc17 	ldw	r2,-16(fp)
 800141c:	1000090e 	bge	r2,zero,8001444 <MAXreg_wr+0x88>
		alt_printf( "W %x %x check 1\n", reg>>3, val );
 8001420:	e0bffe03 	ldbu	r2,-8(fp)
 8001424:	1004d0fa 	srli	r2,r2,3
 8001428:	10803fcc 	andi	r2,r2,255
 800142c:	e0ffff03 	ldbu	r3,-4(fp)
 8001430:	180d883a 	mov	r6,r3
 8001434:	100b883a 	mov	r5,r2
 8001438:	01020074 	movhi	r4,2049
 800143c:	210fdb04 	addi	r4,r4,16236
 8001440:	800fff00 	call	800fff0 <alt_printf>

}
 8001444:	0001883a 	nop
 8001448:	e037883a 	mov	sp,fp
 800144c:	dfc00117 	ldw	ra,4(sp)
 8001450:	df000017 	ldw	fp,0(sp)
 8001454:	dec00204 	addi	sp,sp,8
 8001458:	f800283a 	ret

0800145c <MAXbytes_wr>:
//multiple-byte write
//returns a pointer to a memory position after last written
BYTE* MAXbytes_wr(BYTE reg, BYTE nbytes, BYTE* data) {
 800145c:	defff604 	addi	sp,sp,-40
 8001460:	dfc00915 	stw	ra,36(sp)
 8001464:	df000815 	stw	fp,32(sp)
 8001468:	df000804 	addi	fp,sp,32
 800146c:	2007883a 	mov	r3,r4
 8001470:	2805883a 	mov	r2,r5
 8001474:	e1bfff15 	stw	r6,-4(fp)
 8001478:	e0fffd05 	stb	r3,-12(fp)
 800147c:	e0bffe05 	stb	r2,-8(fp)
	//read return code from SPI peripheral (see Intel documentation) 
	//if return code < 0  print an error
	//deselect MAX3421E (may not be necessary if you are using SPI peripheral)
	//return (data + nbytes);
	int return_codes[2];
	reg |= 0x02;
 8001480:	e0bffd03 	ldbu	r2,-12(fp)
 8001484:	10800094 	ori	r2,r2,2
 8001488:	e0bffd05 	stb	r2,-12(fp)
	return_codes[0] = alt_avalon_spi_command(SPI_USB_BASE, 0, 1, &reg, 0, 0, ALT_AVALON_SPI_COMMAND_MERGE);
 800148c:	e0fffd04 	addi	r3,fp,-12
 8001490:	00800044 	movi	r2,1
 8001494:	d8800215 	stw	r2,8(sp)
 8001498:	d8000115 	stw	zero,4(sp)
 800149c:	d8000015 	stw	zero,0(sp)
 80014a0:	180f883a 	mov	r7,r3
 80014a4:	01800044 	movi	r6,1
 80014a8:	000b883a 	mov	r5,zero
 80014ac:	01042804 	movi	r4,4256
 80014b0:	80113140 	call	8011314 <alt_avalon_spi_command>
 80014b4:	e0bffb15 	stw	r2,-20(fp)
	return_codes[1] = alt_avalon_spi_command(SPI_USB_BASE, 0, nbytes, data, 0, 0, 0);
 80014b8:	e0bffe03 	ldbu	r2,-8(fp)
 80014bc:	d8000215 	stw	zero,8(sp)
 80014c0:	d8000115 	stw	zero,4(sp)
 80014c4:	d8000015 	stw	zero,0(sp)
 80014c8:	e1ffff17 	ldw	r7,-4(fp)
 80014cc:	100d883a 	mov	r6,r2
 80014d0:	000b883a 	mov	r5,zero
 80014d4:	01042804 	movi	r4,4256
 80014d8:	80113140 	call	8011314 <alt_avalon_spi_command>
 80014dc:	e0bffc15 	stw	r2,-16(fp)

	if (return_codes[0] < 0 || return_codes[1] < 0){
 80014e0:	e0bffb17 	ldw	r2,-20(fp)
 80014e4:	10000216 	blt	r2,zero,80014f0 <MAXbytes_wr+0x94>
 80014e8:	e0bffc17 	ldw	r2,-16(fp)
 80014ec:	1000090e 	bge	r2,zero,8001514 <MAXbytes_wr+0xb8>
		alt_printf( "W %x %x check 2\n", reg>>3, data );
 80014f0:	e0bffd03 	ldbu	r2,-12(fp)
 80014f4:	10803fcc 	andi	r2,r2,255
 80014f8:	1004d0fa 	srli	r2,r2,3
 80014fc:	10803fcc 	andi	r2,r2,255
 8001500:	e1bfff17 	ldw	r6,-4(fp)
 8001504:	100b883a 	mov	r5,r2
 8001508:	01020074 	movhi	r4,2049
 800150c:	210fe004 	addi	r4,r4,16256
 8001510:	800fff00 	call	800fff0 <alt_printf>

	}
	return (data + nbytes);
 8001514:	e0bffe03 	ldbu	r2,-8(fp)
 8001518:	e0ffff17 	ldw	r3,-4(fp)
 800151c:	1885883a 	add	r2,r3,r2

}
 8001520:	e037883a 	mov	sp,fp
 8001524:	dfc00117 	ldw	ra,4(sp)
 8001528:	df000017 	ldw	fp,0(sp)
 800152c:	dec00204 	addi	sp,sp,8
 8001530:	f800283a 	ret

08001534 <MAXreg_rd>:

//reads register from MAX3421E via SPI
BYTE MAXreg_rd(BYTE reg) {
 8001534:	defff804 	addi	sp,sp,-32
 8001538:	dfc00715 	stw	ra,28(sp)
 800153c:	df000615 	stw	fp,24(sp)
 8001540:	df000604 	addi	fp,sp,24
 8001544:	2005883a 	mov	r2,r4
 8001548:	e0bfff05 	stb	r2,-4(fp)

	BYTE data[1];

	//BYTE temp[2] = {reg, data};

	return_code = alt_avalon_spi_command( SPI_USB_BASE, 0, 1, &reg, 1, data, 0 );
 800154c:	e0ffff04 	addi	r3,fp,-4
 8001550:	d8000215 	stw	zero,8(sp)
 8001554:	e0bffe04 	addi	r2,fp,-8
 8001558:	d8800115 	stw	r2,4(sp)
 800155c:	00800044 	movi	r2,1
 8001560:	d8800015 	stw	r2,0(sp)
 8001564:	180f883a 	mov	r7,r3
 8001568:	01800044 	movi	r6,1
 800156c:	000b883a 	mov	r5,zero
 8001570:	01042804 	movi	r4,4256
 8001574:	80113140 	call	8011314 <alt_avalon_spi_command>
 8001578:	e0bffd15 	stw	r2,-12(fp)
	if (return_code < 0)
 800157c:	e0bffd17 	ldw	r2,-12(fp)
 8001580:	10000a0e 	bge	r2,zero,80015ac <MAXreg_rd+0x78>
		alt_printf( "flag W %x %x check 3\n", reg>>3, data );
 8001584:	e0bfff03 	ldbu	r2,-4(fp)
 8001588:	10803fcc 	andi	r2,r2,255
 800158c:	1004d0fa 	srli	r2,r2,3
 8001590:	10803fcc 	andi	r2,r2,255
 8001594:	e0fffe04 	addi	r3,fp,-8
 8001598:	180d883a 	mov	r6,r3
 800159c:	100b883a 	mov	r5,r2
 80015a0:	01020074 	movhi	r4,2049
 80015a4:	210fe504 	addi	r4,r4,16276
 80015a8:	800fff00 	call	800fff0 <alt_printf>

	return data[0];
 80015ac:	e0bffe03 	ldbu	r2,-8(fp)

}
 80015b0:	e037883a 	mov	sp,fp
 80015b4:	dfc00117 	ldw	ra,4(sp)
 80015b8:	df000017 	ldw	fp,0(sp)
 80015bc:	dec00204 	addi	sp,sp,8
 80015c0:	f800283a 	ret

080015c4 <MAXbytes_rd>:
//multiple-byte write
//returns a pointer to a memory position after last written
BYTE* MAXbytes_rd(BYTE reg, BYTE nbytes, BYTE* data) {
 80015c4:	defff704 	addi	sp,sp,-36
 80015c8:	dfc00815 	stw	ra,32(sp)
 80015cc:	df000715 	stw	fp,28(sp)
 80015d0:	df000704 	addi	fp,sp,28
 80015d4:	2007883a 	mov	r3,r4
 80015d8:	2805883a 	mov	r2,r5
 80015dc:	e1bfff15 	stw	r6,-4(fp)
 80015e0:	e0fffd05 	stb	r3,-12(fp)
 80015e4:	e0bffe05 	stb	r2,-8(fp)
	//if return code < 0 print an error
	//deselect MAX3421E (may not be necessary if you are using SPI peripheral)
	//return (data + nbytes);
	int return_code;

	return_code = alt_avalon_spi_command( SPI_USB_BASE, 0, 1, &reg, nbytes, data, 0 );
 80015e8:	e0bffe03 	ldbu	r2,-8(fp)
 80015ec:	e13ffd04 	addi	r4,fp,-12
 80015f0:	d8000215 	stw	zero,8(sp)
 80015f4:	e0ffff17 	ldw	r3,-4(fp)
 80015f8:	d8c00115 	stw	r3,4(sp)
 80015fc:	d8800015 	stw	r2,0(sp)
 8001600:	200f883a 	mov	r7,r4
 8001604:	01800044 	movi	r6,1
 8001608:	000b883a 	mov	r5,zero
 800160c:	01042804 	movi	r4,4256
 8001610:	80113140 	call	8011314 <alt_avalon_spi_command>
 8001614:	e0bffc15 	stw	r2,-16(fp)
	if (return_code < 1){
 8001618:	e0bffc17 	ldw	r2,-16(fp)
 800161c:	00800916 	blt	zero,r2,8001644 <MAXbytes_rd+0x80>
		alt_printf( "W %x %x\n check 4", reg>>3, data );
 8001620:	e0bffd03 	ldbu	r2,-12(fp)
 8001624:	10803fcc 	andi	r2,r2,255
 8001628:	1004d0fa 	srli	r2,r2,3
 800162c:	10803fcc 	andi	r2,r2,255
 8001630:	e1bfff17 	ldw	r6,-4(fp)
 8001634:	100b883a 	mov	r5,r2
 8001638:	01020074 	movhi	r4,2049
 800163c:	210feb04 	addi	r4,r4,16300
 8001640:	800fff00 	call	800fff0 <alt_printf>

	}
	return (nbytes + data);
 8001644:	e0bffe03 	ldbu	r2,-8(fp)
 8001648:	e0ffff17 	ldw	r3,-4(fp)
 800164c:	1885883a 	add	r2,r3,r2
}
 8001650:	e037883a 	mov	sp,fp
 8001654:	dfc00117 	ldw	ra,4(sp)
 8001658:	df000017 	ldw	fp,0(sp)
 800165c:	dec00204 	addi	sp,sp,8
 8001660:	f800283a 	ret

08001664 <MAX3421E_reset>:
/* reset MAX3421E using chip reset bit. SPI configuration is not affected   */
void MAX3421E_reset(void) {
 8001664:	defffd04 	addi	sp,sp,-12
 8001668:	dfc00215 	stw	ra,8(sp)
 800166c:	df000115 	stw	fp,4(sp)
 8001670:	df000104 	addi	fp,sp,4
	//hardware reset, then software reset
	IOWR_ALTERA_AVALON_PIO_DATA(USB_RST_BASE, 0);
 8001674:	0007883a 	mov	r3,zero
 8001678:	00845404 	movi	r2,4432
 800167c:	10c00035 	stwio	r3,0(r2)
	usleep(1000000);
 8001680:	010003f4 	movhi	r4,15
 8001684:	21109004 	addi	r4,r4,16960
 8001688:	80106700 	call	8010670 <usleep>
	IOWR_ALTERA_AVALON_PIO_DATA(USB_RST_BASE, 1);
 800168c:	00c00044 	movi	r3,1
 8001690:	00845404 	movi	r2,4432
 8001694:	10c00035 	stwio	r3,0(r2)
	BYTE tmp = 0;
 8001698:	e03fff05 	stb	zero,-4(fp)
	MAXreg_wr( rUSBCTL, bmCHIPRES);      //Chip reset. This stops the oscillator
 800169c:	01400804 	movi	r5,32
 80016a0:	01001e04 	movi	r4,120
 80016a4:	80013bc0 	call	80013bc <MAXreg_wr>
	MAXreg_wr( rUSBCTL, 0x00);                          //Remove the reset
 80016a8:	000b883a 	mov	r5,zero
 80016ac:	01001e04 	movi	r4,120
 80016b0:	80013bc0 	call	80013bc <MAXreg_wr>
	while (!(MAXreg_rd( rUSBIRQ) & bmOSCOKIRQ)) { //wait until the PLL stabilizes
 80016b4:	00000806 	br	80016d8 <MAX3421E_reset+0x74>
		tmp++;                                      //timeout after 256 attempts
 80016b8:	e0bfff03 	ldbu	r2,-4(fp)
 80016bc:	10800044 	addi	r2,r2,1
 80016c0:	e0bfff05 	stb	r2,-4(fp)
		if (tmp == 0) {
 80016c4:	e0bfff03 	ldbu	r2,-4(fp)
 80016c8:	1000031e 	bne	r2,zero,80016d8 <MAX3421E_reset+0x74>
			printf("reset timeout!");
 80016cc:	01020074 	movhi	r4,2049
 80016d0:	210ff004 	addi	r4,r4,16320
 80016d4:	8002c980 	call	8002c98 <printf>
	usleep(1000000);
	IOWR_ALTERA_AVALON_PIO_DATA(USB_RST_BASE, 1);
	BYTE tmp = 0;
	MAXreg_wr( rUSBCTL, bmCHIPRES);      //Chip reset. This stops the oscillator
	MAXreg_wr( rUSBCTL, 0x00);                          //Remove the reset
	while (!(MAXreg_rd( rUSBIRQ) & bmOSCOKIRQ)) { //wait until the PLL stabilizes
 80016d8:	01001a04 	movi	r4,104
 80016dc:	80015340 	call	8001534 <MAXreg_rd>
 80016e0:	10803fcc 	andi	r2,r2,255
 80016e4:	1080004c 	andi	r2,r2,1
 80016e8:	103ff326 	beq	r2,zero,80016b8 <__alt_data_end+0xfc0016b8>
		tmp++;                                      //timeout after 256 attempts
		if (tmp == 0) {
			printf("reset timeout!");
		}
	}
}
 80016ec:	0001883a 	nop
 80016f0:	e037883a 	mov	sp,fp
 80016f4:	dfc00117 	ldw	ra,4(sp)
 80016f8:	df000017 	ldw	fp,0(sp)
 80016fc:	dec00204 	addi	sp,sp,8
 8001700:	f800283a 	ret

08001704 <Vbus_power>:
/* turn USB power on/off                                                */
/* ON pin of VBUS switch (MAX4793 or similar) is connected to GPOUT7    */
/* OVERLOAD pin of Vbus switch is connected to GPIN7                    */
/* OVERLOAD state low. NO OVERLOAD or VBUS OFF state high.              */
BOOL Vbus_power(BOOL action) {
 8001704:	defffe04 	addi	sp,sp,-8
 8001708:	df000115 	stw	fp,4(sp)
 800170c:	df000104 	addi	fp,sp,4
 8001710:	e13fff15 	stw	r4,-4(fp)
	// power on/off successful
	return (1);
 8001714:	00800044 	movi	r2,1
}
 8001718:	e037883a 	mov	sp,fp
 800171c:	df000017 	ldw	fp,0(sp)
 8001720:	dec00104 	addi	sp,sp,4
 8001724:	f800283a 	ret

08001728 <MAX_busprobe>:

/* probe bus to determine device presense and speed */
void MAX_busprobe(void) {
 8001728:	defffd04 	addi	sp,sp,-12
 800172c:	dfc00215 	stw	ra,8(sp)
 8001730:	df000115 	stw	fp,4(sp)
 8001734:	df000104 	addi	fp,sp,4
	BYTE bus_sample;

//  MAXreg_wr(rHCTL,bmSAMPLEBUS);
	bus_sample = MAXreg_rd( rHRSL);            //Get J,K status
 8001738:	01003e04 	movi	r4,248
 800173c:	80015340 	call	8001534 <MAXreg_rd>
 8001740:	e0bfff05 	stb	r2,-4(fp)
	bus_sample &= ( bmJSTATUS | bmKSTATUS);      //zero the rest of the byte
 8001744:	e0ffff03 	ldbu	r3,-4(fp)
 8001748:	00bff004 	movi	r2,-64
 800174c:	1884703a 	and	r2,r3,r2
 8001750:	e0bfff05 	stb	r2,-4(fp)

	switch (bus_sample) {                   //start full-speed or low-speed host
 8001754:	e0bfff03 	ldbu	r2,-4(fp)
 8001758:	10c01020 	cmpeqi	r3,r2,64
 800175c:	1800221e 	bne	r3,zero,80017e8 <MAX_busprobe+0xc0>
 8001760:	10c01048 	cmpgei	r3,r2,65
 8001764:	1800021e 	bne	r3,zero,8001770 <MAX_busprobe+0x48>
 8001768:	10003b26 	beq	r2,zero,8001858 <MAX_busprobe+0x130>
			MAXreg_wr( rMODE, MODE_FS_HOST); //start full-speed host
			usb_task_state = ( USB_DETACHED_SUBSTATE_WAIT_FOR_DEVICE);
		}
		break;
	} //end switch( bus_sample )
}
 800176c:	00004a06 	br	8001898 <MAX_busprobe+0x170>

//  MAXreg_wr(rHCTL,bmSAMPLEBUS);
	bus_sample = MAXreg_rd( rHRSL);            //Get J,K status
	bus_sample &= ( bmJSTATUS | bmKSTATUS);      //zero the rest of the byte

	switch (bus_sample) {                   //start full-speed or low-speed host
 8001770:	10c02020 	cmpeqi	r3,r2,128
 8001774:	1800031e 	bne	r3,zero,8001784 <MAX_busprobe+0x5c>
 8001778:	10803020 	cmpeqi	r2,r2,192
 800177c:	1000331e 	bne	r2,zero,800184c <MAX_busprobe+0x124>
			MAXreg_wr( rMODE, MODE_FS_HOST); //start full-speed host
			usb_task_state = ( USB_DETACHED_SUBSTATE_WAIT_FOR_DEVICE);
		}
		break;
	} //end switch( bus_sample )
}
 8001780:	00004506 	br	8001898 <MAX_busprobe+0x170>
	bus_sample &= ( bmJSTATUS | bmKSTATUS);      //zero the rest of the byte

	switch (bus_sample) {                   //start full-speed or low-speed host
	case ( bmJSTATUS):
		/*kludgy*/
		if (usb_task_state != USB_ATTACHED_SUBSTATE_WAIT_RESET_COMPLETE) { //bus reset causes connection detect interrupt
 8001784:	d0a00503 	ldbu	r2,-32748(gp)
 8001788:	10803fcc 	andi	r2,r2,255
 800178c:	108004e0 	cmpeqi	r2,r2,19
 8001790:	10003e1e 	bne	r2,zero,800188c <MAX_busprobe+0x164>
			if (!(MAXreg_rd( rMODE) & bmLOWSPEED)) {
 8001794:	01003604 	movi	r4,216
 8001798:	80015340 	call	8001534 <MAXreg_rd>
 800179c:	10803fcc 	andi	r2,r2,255
 80017a0:	1080008c 	andi	r2,r2,2
 80017a4:	1000071e 	bne	r2,zero,80017c4 <MAX_busprobe+0x9c>
				MAXreg_wr( rMODE, MODE_FS_HOST);         //start full-speed host
 80017a8:	01403244 	movi	r5,201
 80017ac:	01003604 	movi	r4,216
 80017b0:	80013bc0 	call	80013bc <MAXreg_wr>
				printf("Starting in full speed\n");
 80017b4:	01020074 	movhi	r4,2049
 80017b8:	210ff404 	addi	r4,r4,16336
 80017bc:	8002db40 	call	8002db4 <puts>
 80017c0:	00000606 	br	80017dc <MAX_busprobe+0xb4>
			} else {
				MAXreg_wr( rMODE, MODE_LS_HOST);    //start low-speed host
 80017c4:	014032c4 	movi	r5,203
 80017c8:	01003604 	movi	r4,216
 80017cc:	80013bc0 	call	80013bc <MAXreg_wr>
				printf("Starting in low speed\n");
 80017d0:	01020074 	movhi	r4,2049
 80017d4:	210ffa04 	addi	r4,r4,16360
 80017d8:	8002db40 	call	8002db4 <puts>
			}
			usb_task_state = ( USB_STATE_ATTACHED); //signal usb state machine to start attachment sequence
 80017dc:	00800404 	movi	r2,16
 80017e0:	d0a00505 	stb	r2,-32748(gp)
		}
		break;
 80017e4:	00002906 	br	800188c <MAX_busprobe+0x164>
	case ( bmKSTATUS):
		if (usb_task_state != USB_ATTACHED_SUBSTATE_WAIT_RESET_COMPLETE) { //bus reset causes connection detect interrupt
 80017e8:	d0a00503 	ldbu	r2,-32748(gp)
 80017ec:	10803fcc 	andi	r2,r2,255
 80017f0:	108004e0 	cmpeqi	r2,r2,19
 80017f4:	1000271e 	bne	r2,zero,8001894 <MAX_busprobe+0x16c>
			if (!(MAXreg_rd( rMODE) & bmLOWSPEED)) {
 80017f8:	01003604 	movi	r4,216
 80017fc:	80015340 	call	8001534 <MAXreg_rd>
 8001800:	10803fcc 	andi	r2,r2,255
 8001804:	1080008c 	andi	r2,r2,2
 8001808:	1000071e 	bne	r2,zero,8001828 <MAX_busprobe+0x100>
				MAXreg_wr( rMODE, MODE_LS_HOST);   //start low-speed host
 800180c:	014032c4 	movi	r5,203
 8001810:	01003604 	movi	r4,216
 8001814:	80013bc0 	call	80013bc <MAXreg_wr>
				printf("Starting in low speed\n");
 8001818:	01020074 	movhi	r4,2049
 800181c:	210ffa04 	addi	r4,r4,16360
 8001820:	8002db40 	call	8002db4 <puts>
 8001824:	00000606 	br	8001840 <MAX_busprobe+0x118>
			} else {
				MAXreg_wr( rMODE, MODE_FS_HOST);         //start full-speed host
 8001828:	01403244 	movi	r5,201
 800182c:	01003604 	movi	r4,216
 8001830:	80013bc0 	call	80013bc <MAXreg_wr>
				printf("Starting in full speed\n");
 8001834:	01020074 	movhi	r4,2049
 8001838:	210ff404 	addi	r4,r4,16336
 800183c:	8002db40 	call	8002db4 <puts>
			}
			usb_task_state = ( USB_STATE_ATTACHED); //signal usb state machine to start attachment sequence
 8001840:	00800404 	movi	r2,16
 8001844:	d0a00505 	stb	r2,-32748(gp)
		}
		break;
 8001848:	00001206 	br	8001894 <MAX_busprobe+0x16c>
	case ( bmSE1):              //illegal state
		usb_task_state = ( USB_DETACHED_SUBSTATE_ILLEGAL);
 800184c:	00800104 	movi	r2,4
 8001850:	d0a00505 	stb	r2,-32748(gp)
		break;
 8001854:	00001006 	br	8001898 <MAX_busprobe+0x170>
	case ( bmSE0):              //disconnected state
		if (!((usb_task_state & USB_STATE_MASK) == USB_STATE_DETACHED)) //if we came here from other than detached state
 8001858:	d0a00503 	ldbu	r2,-32748(gp)
 800185c:	10803fcc 	andi	r2,r2,255
 8001860:	10803c0c 	andi	r2,r2,240
 8001864:	10000326 	beq	r2,zero,8001874 <MAX_busprobe+0x14c>
			usb_task_state = ( USB_DETACHED_SUBSTATE_INITIALIZE); //clear device data structures
 8001868:	00800044 	movi	r2,1
 800186c:	d0a00505 	stb	r2,-32748(gp)
		else {
			MAXreg_wr( rMODE, MODE_FS_HOST); //start full-speed host
			usb_task_state = ( USB_DETACHED_SUBSTATE_WAIT_FOR_DEVICE);
		}
		break;
 8001870:	00000906 	br	8001898 <MAX_busprobe+0x170>
		break;
	case ( bmSE0):              //disconnected state
		if (!((usb_task_state & USB_STATE_MASK) == USB_STATE_DETACHED)) //if we came here from other than detached state
			usb_task_state = ( USB_DETACHED_SUBSTATE_INITIALIZE); //clear device data structures
		else {
			MAXreg_wr( rMODE, MODE_FS_HOST); //start full-speed host
 8001874:	01403244 	movi	r5,201
 8001878:	01003604 	movi	r4,216
 800187c:	80013bc0 	call	80013bc <MAXreg_wr>
			usb_task_state = ( USB_DETACHED_SUBSTATE_WAIT_FOR_DEVICE);
 8001880:	008000c4 	movi	r2,3
 8001884:	d0a00505 	stb	r2,-32748(gp)
		}
		break;
 8001888:	00000306 	br	8001898 <MAX_busprobe+0x170>
				MAXreg_wr( rMODE, MODE_LS_HOST);    //start low-speed host
				printf("Starting in low speed\n");
			}
			usb_task_state = ( USB_STATE_ATTACHED); //signal usb state machine to start attachment sequence
		}
		break;
 800188c:	0001883a 	nop
 8001890:	00000106 	br	8001898 <MAX_busprobe+0x170>
				MAXreg_wr( rMODE, MODE_FS_HOST);         //start full-speed host
				printf("Starting in full speed\n");
			}
			usb_task_state = ( USB_STATE_ATTACHED); //signal usb state machine to start attachment sequence
		}
		break;
 8001894:	0001883a 	nop
			MAXreg_wr( rMODE, MODE_FS_HOST); //start full-speed host
			usb_task_state = ( USB_DETACHED_SUBSTATE_WAIT_FOR_DEVICE);
		}
		break;
	} //end switch( bus_sample )
}
 8001898:	0001883a 	nop
 800189c:	e037883a 	mov	sp,fp
 80018a0:	dfc00117 	ldw	ra,4(sp)
 80018a4:	df000017 	ldw	fp,0(sp)
 80018a8:	dec00204 	addi	sp,sp,8
 80018ac:	f800283a 	ret

080018b0 <MAX3421E_init>:
/* MAX3421E initialization after power-on   */
void MAX3421E_init(void) {
 80018b0:	defffe04 	addi	sp,sp,-8
 80018b4:	dfc00115 	stw	ra,4(sp)
 80018b8:	df000015 	stw	fp,0(sp)
 80018bc:	d839883a 	mov	fp,sp
	/* Configure full-duplex SPI, interrupt pulse   */
	MAXreg_wr( rPINCTL, (bmFDUPSPI + bmINTLEVEL + bmGPXB)); //Full-duplex SPI, level interrupt, GPX
 80018c0:	01400684 	movi	r5,26
 80018c4:	01002204 	movi	r4,136
 80018c8:	80013bc0 	call	80013bc <MAXreg_wr>
	MAX3421E_reset();                                //stop/start the oscillator
 80018cc:	80016640 	call	8001664 <MAX3421E_reset>
	/* configure power switch   */
	Vbus_power( OFF);                                      //turn Vbus power off
 80018d0:	0009883a 	mov	r4,zero
 80018d4:	80017040 	call	8001704 <Vbus_power>
	MAXreg_wr( rGPINIEN, bmGPINIEN7); //enable interrupt on GPIN7 (power switch overload flag)
 80018d8:	01402004 	movi	r5,128
 80018dc:	01002e04 	movi	r4,184
 80018e0:	80013bc0 	call	80013bc <MAXreg_wr>
	Vbus_power( ON);
 80018e4:	01000044 	movi	r4,1
 80018e8:	80017040 	call	8001704 <Vbus_power>
	/* configure host operation */
	MAXreg_wr( rMODE, bmDPPULLDN | bmDMPULLDN | bmHOST | bmSEPIRQ); // set pull-downs, SOF, Host, Separate GPIN IRQ on GPX
 80018ec:	01403444 	movi	r5,209
 80018f0:	01003604 	movi	r4,216
 80018f4:	80013bc0 	call	80013bc <MAXreg_wr>
	//MAXreg_wr( rHIEN, bmFRAMEIE|bmCONDETIE|bmBUSEVENTIE );                      // enable SOF, connection detection, bus event IRQs
	MAXreg_wr( rHIEN, bmCONDETIE);                        //connection detection
 80018f8:	01400804 	movi	r5,32
 80018fc:	01003404 	movi	r4,208
 8001900:	80013bc0 	call	80013bc <MAXreg_wr>
	/* HXFRDNIRQ is checked in Dispatch packet function */
	MAXreg_wr(rHCTL, bmSAMPLEBUS);        // update the JSTATUS and KSTATUS bits
 8001904:	01400104 	movi	r5,4
 8001908:	01003a04 	movi	r4,232
 800190c:	80013bc0 	call	80013bc <MAXreg_wr>
	MAX_busprobe();                             //check if anything is connected
 8001910:	80017280 	call	8001728 <MAX_busprobe>
	MAXreg_wr( rHIRQ, bmCONDETIRQ); //clear connection detect interrupt                 
 8001914:	01400804 	movi	r5,32
 8001918:	01003204 	movi	r4,200
 800191c:	80013bc0 	call	80013bc <MAXreg_wr>
	MAXreg_wr( rCPUCTL, 0x01);                            //enable interrupt pin
 8001920:	01400044 	movi	r5,1
 8001924:	01002004 	movi	r4,128
 8001928:	80013bc0 	call	80013bc <MAXreg_wr>
}
 800192c:	0001883a 	nop
 8001930:	e037883a 	mov	sp,fp
 8001934:	dfc00117 	ldw	ra,4(sp)
 8001938:	df000017 	ldw	fp,0(sp)
 800193c:	dec00204 	addi	sp,sp,8
 8001940:	f800283a 	ret

08001944 <MAX3421E_Task>:

/* MAX3421 state change task and interrupt handler */
void MAX3421E_Task(void) {
 8001944:	defffe04 	addi	sp,sp,-8
 8001948:	dfc00115 	stw	ra,4(sp)
 800194c:	df000015 	stw	fp,0(sp)
 8001950:	d839883a 	mov	fp,sp
	if ( IORD_ALTERA_AVALON_PIO_DATA(USB_IRQ_BASE) == 0) {
 8001954:	00845804 	movi	r2,4448
 8001958:	10800037 	ldwio	r2,0(r2)
 800195c:	1000041e 	bne	r2,zero,8001970 <MAX3421E_Task+0x2c>
		printf("MAX interrupt\n\r");
 8001960:	01020074 	movhi	r4,2049
 8001964:	21100004 	addi	r4,r4,16384
 8001968:	8002c980 	call	8002c98 <printf>
		MaxIntHandler();
 800196c:	80019ac0 	call	80019ac <MaxIntHandler>
	}
	if ( IORD_ALTERA_AVALON_PIO_DATA(USB_GPX_BASE) == 1) {
 8001970:	00800074 	movhi	r2,1
 8001974:	10881404 	addi	r2,r2,8272
 8001978:	10800037 	ldwio	r2,0(r2)
 800197c:	10800058 	cmpnei	r2,r2,1
 8001980:	1000041e 	bne	r2,zero,8001994 <MAX3421E_Task+0x50>
		printf("GPX interrupt\n\r");
 8001984:	01020074 	movhi	r4,2049
 8001988:	21100404 	addi	r4,r4,16400
 800198c:	8002c980 	call	8002c98 <printf>
		MaxGpxHandler();
 8001990:	8001a780 	call	8001a78 <MaxGpxHandler>
	}
}
 8001994:	0001883a 	nop
 8001998:	e037883a 	mov	sp,fp
 800199c:	dfc00117 	ldw	ra,4(sp)
 80019a0:	df000017 	ldw	fp,0(sp)
 80019a4:	dec00204 	addi	sp,sp,8
 80019a8:	f800283a 	ret

080019ac <MaxIntHandler>:

void MaxIntHandler(void) {
 80019ac:	defffd04 	addi	sp,sp,-12
 80019b0:	dfc00215 	stw	ra,8(sp)
 80019b4:	df000115 	stw	fp,4(sp)
 80019b8:	df000104 	addi	fp,sp,4
	BYTE HIRQ;
	BYTE HIRQ_sendback = 0x00;
 80019bc:	e03fff05 	stb	zero,-4(fp)
	HIRQ = MAXreg_rd( rHIRQ);                  //determine interrupt source
 80019c0:	01003204 	movi	r4,200
 80019c4:	80015340 	call	8001534 <MAXreg_rd>
 80019c8:	e0bfff45 	stb	r2,-3(fp)
	printf("IRQ: %x\n", HIRQ);
 80019cc:	e0bfff43 	ldbu	r2,-3(fp)
 80019d0:	100b883a 	mov	r5,r2
 80019d4:	01020074 	movhi	r4,2049
 80019d8:	21100804 	addi	r4,r4,16416
 80019dc:	8002c980 	call	8002c98 <printf>
	if (HIRQ & bmFRAMEIRQ) {                   //->1ms SOF interrupt handler
 80019e0:	e0bfff43 	ldbu	r2,-3(fp)
 80019e4:	1080100c 	andi	r2,r2,64
 80019e8:	10000326 	beq	r2,zero,80019f8 <MaxIntHandler+0x4c>
		HIRQ_sendback |= bmFRAMEIRQ;
 80019ec:	e0bfff03 	ldbu	r2,-4(fp)
 80019f0:	10801014 	ori	r2,r2,64
 80019f4:	e0bfff05 	stb	r2,-4(fp)
	}                   //end FRAMEIRQ handling

	if (HIRQ & bmCONDETIRQ) {
 80019f8:	e0bfff43 	ldbu	r2,-3(fp)
 80019fc:	1080080c 	andi	r2,r2,32
 8001a00:	10000426 	beq	r2,zero,8001a14 <MaxIntHandler+0x68>
		MAX_busprobe();
 8001a04:	80017280 	call	8001728 <MAX_busprobe>
		HIRQ_sendback |= bmCONDETIRQ;      //set sendback to 1 to clear register
 8001a08:	e0bfff03 	ldbu	r2,-4(fp)
 8001a0c:	10800814 	ori	r2,r2,32
 8001a10:	e0bfff05 	stb	r2,-4(fp)
	}
	if (HIRQ & bmSNDBAVIRQ) //if the send buffer is clear (previous transfer completed without issue)
 8001a14:	e0bfff43 	ldbu	r2,-3(fp)
 8001a18:	1080020c 	andi	r2,r2,8
 8001a1c:	10000326 	beq	r2,zero,8001a2c <MaxIntHandler+0x80>
	{
		MAXreg_wr(rSNDBC, 0x00);//clear the send buffer (not really necessary, but clears interrupt)
 8001a20:	000b883a 	mov	r5,zero
 8001a24:	01000e04 	movi	r4,56
 8001a28:	80013bc0 	call	80013bc <MAXreg_wr>
	}
	if (HIRQ & bmBUSEVENTIRQ) {           //bus event is either reset or suspend
 8001a2c:	e0bfff43 	ldbu	r2,-3(fp)
 8001a30:	1080004c 	andi	r2,r2,1
 8001a34:	10000626 	beq	r2,zero,8001a50 <MaxIntHandler+0xa4>
		usb_task_state++;                       //advance USB task state machine
 8001a38:	d0a00503 	ldbu	r2,-32748(gp)
 8001a3c:	10800044 	addi	r2,r2,1
 8001a40:	d0a00505 	stb	r2,-32748(gp)
		HIRQ_sendback |= bmBUSEVENTIRQ;
 8001a44:	e0bfff03 	ldbu	r2,-4(fp)
 8001a48:	10800054 	ori	r2,r2,1
 8001a4c:	e0bfff05 	stb	r2,-4(fp)
	}
	/* End HIRQ interrupts handling, clear serviced IRQs    */
	MAXreg_wr( rHIRQ, HIRQ_sendback); //write '1' to CONDETIRQ to ack bus state change
 8001a50:	e0bfff03 	ldbu	r2,-4(fp)
 8001a54:	100b883a 	mov	r5,r2
 8001a58:	01003204 	movi	r4,200
 8001a5c:	80013bc0 	call	80013bc <MAXreg_wr>
}
 8001a60:	0001883a 	nop
 8001a64:	e037883a 	mov	sp,fp
 8001a68:	dfc00117 	ldw	ra,4(sp)
 8001a6c:	df000017 	ldw	fp,0(sp)
 8001a70:	dec00204 	addi	sp,sp,8
 8001a74:	f800283a 	ret

08001a78 <MaxGpxHandler>:

void MaxGpxHandler(void) {
 8001a78:	defffd04 	addi	sp,sp,-12
 8001a7c:	dfc00215 	stw	ra,8(sp)
 8001a80:	df000115 	stw	fp,4(sp)
 8001a84:	df000104 	addi	fp,sp,4
	BYTE GPINIRQ;
	GPINIRQ = MAXreg_rd( rGPINIRQ);            //read both IRQ registers
 8001a88:	01002c04 	movi	r4,176
 8001a8c:	80015340 	call	8001534 <MAXreg_rd>
 8001a90:	e0bfff05 	stb	r2,-4(fp)
}
 8001a94:	0001883a 	nop
 8001a98:	e037883a 	mov	sp,fp
 8001a9c:	dfc00117 	ldw	ra,4(sp)
 8001aa0:	df000017 	ldw	fp,0(sp)
 8001aa4:	dec00204 	addi	sp,sp,8
 8001aa8:	f800283a 	ret

08001aac <XferCtrlReq>:
/* depending on request. Actual requests are defined as macros                                                                                      */
/* return codes:                */
/* 00       =   success         */
/* 01-0f    =   non-zero HRSLT  */
BYTE XferCtrlReq( BYTE addr, BYTE ep, BYTE bmReqType, BYTE bRequest, BYTE wValLo, BYTE wValHi, WORD wInd, WORD nbytes, BYTE* dataptr )
{
 8001aac:	defff104 	addi	sp,sp,-60
 8001ab0:	dfc00e15 	stw	ra,56(sp)
 8001ab4:	df000d15 	stw	fp,52(sp)
 8001ab8:	df000d04 	addi	fp,sp,52
 8001abc:	2015883a 	mov	r10,r4
 8001ac0:	2813883a 	mov	r9,r5
 8001ac4:	3011883a 	mov	r8,r6
 8001ac8:	380d883a 	mov	r6,r7
 8001acc:	e1400217 	ldw	r5,8(fp)
 8001ad0:	e1000317 	ldw	r4,12(fp)
 8001ad4:	e0c00417 	ldw	r3,16(fp)
 8001ad8:	e0800517 	ldw	r2,20(fp)
 8001adc:	e2bff805 	stb	r10,-32(fp)
 8001ae0:	e27ff905 	stb	r9,-28(fp)
 8001ae4:	e23ffa05 	stb	r8,-24(fp)
 8001ae8:	e1bffb05 	stb	r6,-20(fp)
 8001aec:	e17ffc05 	stb	r5,-16(fp)
 8001af0:	e13ffd05 	stb	r4,-12(fp)
 8001af4:	e0fffe0d 	sth	r3,-8(fp)
 8001af8:	e0bfff0d 	sth	r2,-4(fp)
 BOOL direction = FALSE;        //request direction, IN or OUT
 8001afc:	e03ff415 	stw	zero,-48(fp)
 BYTE datastage = 1; //request data stage present or absent
 8001b00:	00800044 	movi	r2,1
 8001b04:	e0bff505 	stb	r2,-44(fp)
 BYTE rcode;
 SETUP_PKT setup_pkt;
    if( dataptr == NULL ) {
 8001b08:	e0800617 	ldw	r2,24(fp)
 8001b0c:	1000011e 	bne	r2,zero,8001b14 <XferCtrlReq+0x68>
        datastage = 0;
 8001b10:	e03ff505 	stb	zero,-44(fp)
    }
    MAXreg_wr( rPERADDR, addr );                    //set peripheral address
 8001b14:	e0bff803 	ldbu	r2,-32(fp)
 8001b18:	100b883a 	mov	r5,r2
 8001b1c:	01003804 	movi	r4,224
 8001b20:	80013bc0 	call	80013bc <MAXreg_wr>
    /* fill in setup packet */
    if( bmReqType & 0x80 ) {
 8001b24:	e0bffa03 	ldbu	r2,-24(fp)
 8001b28:	10803fcc 	andi	r2,r2,255
 8001b2c:	1080201c 	xori	r2,r2,128
 8001b30:	10bfe004 	addi	r2,r2,-128
 8001b34:	1000020e 	bge	r2,zero,8001b40 <XferCtrlReq+0x94>
        direction = TRUE;                   		//determine request direction
 8001b38:	00800044 	movi	r2,1
 8001b3c:	e0bff415 	stw	r2,-48(fp)
    }
    /* fill in setup packet */
    setup_pkt.ReqType_u.bmRequestType = bmReqType;
 8001b40:	e0bffa03 	ldbu	r2,-24(fp)
 8001b44:	e0bff585 	stb	r2,-42(fp)
    setup_pkt.bRequest = bRequest;
 8001b48:	e0bffb03 	ldbu	r2,-20(fp)
 8001b4c:	e0bff5c5 	stb	r2,-41(fp)
    setup_pkt.wVal_u.wValueLo = wValLo;
 8001b50:	e0bffc03 	ldbu	r2,-16(fp)
 8001b54:	e0bff605 	stb	r2,-40(fp)
    setup_pkt.wVal_u.wValueHi = wValHi;
 8001b58:	e0bffd03 	ldbu	r2,-12(fp)
 8001b5c:	e0bff645 	stb	r2,-39(fp)
    setup_pkt.wIndex = wInd;
 8001b60:	e0bffe0b 	ldhu	r2,-8(fp)
 8001b64:	e0bff68d 	sth	r2,-38(fp)
    setup_pkt.wLength = nbytes;
 8001b68:	e0bfff0b 	ldhu	r2,-4(fp)
 8001b6c:	e0bff70d 	sth	r2,-36(fp)
    MAXbytes_wr( rSUDFIFO, 8, (BYTE *)&setup_pkt );     //transfer to setup packet FIFO
 8001b70:	e0bff584 	addi	r2,fp,-42
 8001b74:	100d883a 	mov	r6,r2
 8001b78:	01400204 	movi	r5,8
 8001b7c:	01000804 	movi	r4,32
 8001b80:	800145c0 	call	800145c <MAXbytes_wr>
    rcode = XferDispatchPkt( tokSETUP, ep );            //dispatch packet
 8001b84:	e0bff903 	ldbu	r2,-28(fp)
 8001b88:	100b883a 	mov	r5,r2
 8001b8c:	01000404 	movi	r4,16
 8001b90:	8001d540 	call	8001d54 <XferDispatchPkt>
 8001b94:	e0bff545 	stb	r2,-43(fp)
    if( rcode ) {                                       //return HRSLT if not zero
 8001b98:	e0bff543 	ldbu	r2,-43(fp)
 8001b9c:	10000226 	beq	r2,zero,8001ba8 <XferCtrlReq+0xfc>
        return( rcode );
 8001ba0:	e0bff543 	ldbu	r2,-43(fp)
 8001ba4:	00000f06 	br	8001be4 <XferCtrlReq+0x138>
    }
    rcode = ctrl_xfers[ datastage ]( addr, ep, nbytes, dataptr, direction );    //call data stage or no data stage transfer
 8001ba8:	e0bff503 	ldbu	r2,-44(fp)
 8001bac:	1085883a 	add	r2,r2,r2
 8001bb0:	1087883a 	add	r3,r2,r2
 8001bb4:	d0a00304 	addi	r2,gp,-32756
 8001bb8:	1885883a 	add	r2,r3,r2
 8001bbc:	10800017 	ldw	r2,0(r2)
 8001bc0:	e13ff803 	ldbu	r4,-32(fp)
 8001bc4:	e17ff903 	ldbu	r5,-28(fp)
 8001bc8:	e1bfff0b 	ldhu	r6,-4(fp)
 8001bcc:	e0fff417 	ldw	r3,-48(fp)
 8001bd0:	d8c00015 	stw	r3,0(sp)
 8001bd4:	e1c00617 	ldw	r7,24(fp)
 8001bd8:	103ee83a 	callr	r2
 8001bdc:	e0bff545 	stb	r2,-43(fp)
    return( rcode );
 8001be0:	e0bff543 	ldbu	r2,-43(fp)
}
 8001be4:	e037883a 	mov	sp,fp
 8001be8:	dfc00117 	ldw	ra,4(sp)
 8001bec:	df000017 	ldw	fp,0(sp)
 8001bf0:	dec00204 	addi	sp,sp,8
 8001bf4:	f800283a 	ret

08001bf8 <XferCtrlData>:
/* Control transfer with data stage */
BYTE XferCtrlData( BYTE addr, BYTE ep, WORD nbytes, BYTE* dataptr, BOOL direction )
{
 8001bf8:	defff804 	addi	sp,sp,-32
 8001bfc:	dfc00715 	stw	ra,28(sp)
 8001c00:	df000615 	stw	fp,24(sp)
 8001c04:	df000604 	addi	fp,sp,24
 8001c08:	2807883a 	mov	r3,r5
 8001c0c:	3005883a 	mov	r2,r6
 8001c10:	e1ffff15 	stw	r7,-4(fp)
 8001c14:	e13ffc05 	stb	r4,-16(fp)
 8001c18:	e0fffd05 	stb	r3,-12(fp)
 8001c1c:	e0bffe0d 	sth	r2,-8(fp)
  BYTE rcode;

    //MAXreg_wr( rHCTL, bmRCVTOG1 );       //set toggle to DATA1
    if( direction ) {   //IN transfer
 8001c20:	e0800217 	ldw	r2,8(fp)
 8001c24:	10002826 	beq	r2,zero,8001cc8 <XferCtrlData+0xd0>
        devtable[ addr ].epinfo[ ep ].rcvToggle = bmRCVTOG1;
 8001c28:	e0fffc03 	ldbu	r3,-16(fp)
 8001c2c:	00820074 	movhi	r2,2049
 8001c30:	109ed904 	addi	r2,r2,31588
 8001c34:	180690fa 	slli	r3,r3,3
 8001c38:	10c5883a 	add	r2,r2,r3
 8001c3c:	10c00017 	ldw	r3,0(r2)
 8001c40:	e0bffd03 	ldbu	r2,-12(fp)
 8001c44:	100490fa 	slli	r2,r2,3
 8001c48:	1885883a 	add	r2,r3,r2
 8001c4c:	00c00804 	movi	r3,32
 8001c50:	10c00185 	stb	r3,6(r2)
        rcode = XferInTransfer( addr, ep, nbytes, dataptr, devtable[ addr ].epinfo[ ep ].MaxPktSize );
 8001c54:	e13ffc03 	ldbu	r4,-16(fp)
 8001c58:	e17ffd03 	ldbu	r5,-12(fp)
 8001c5c:	e1bffe0b 	ldhu	r6,-8(fp)
 8001c60:	e0fffc03 	ldbu	r3,-16(fp)
 8001c64:	00820074 	movhi	r2,2049
 8001c68:	109ed904 	addi	r2,r2,31588
 8001c6c:	180690fa 	slli	r3,r3,3
 8001c70:	10c5883a 	add	r2,r2,r3
 8001c74:	10c00017 	ldw	r3,0(r2)
 8001c78:	e0bffd03 	ldbu	r2,-12(fp)
 8001c7c:	100490fa 	slli	r2,r2,3
 8001c80:	1885883a 	add	r2,r3,r2
 8001c84:	1080008b 	ldhu	r2,2(r2)
 8001c88:	10803fcc 	andi	r2,r2,255
 8001c8c:	d8800015 	stw	r2,0(sp)
 8001c90:	e1ffff17 	ldw	r7,-4(fp)
 8001c94:	8001ed00 	call	8001ed0 <XferInTransfer>
 8001c98:	e0bffb05 	stb	r2,-20(fp)
        if( rcode ) {
 8001c9c:	e0bffb03 	ldbu	r2,-20(fp)
 8001ca0:	10000226 	beq	r2,zero,8001cac <XferCtrlData+0xb4>
        return( rcode );
 8001ca4:	e0bffb03 	ldbu	r2,-20(fp)
 8001ca8:	00000806 	br	8001ccc <XferCtrlData+0xd4>
        }
        rcode = XferDispatchPkt( tokOUTHS, ep );
 8001cac:	e0bffd03 	ldbu	r2,-12(fp)
 8001cb0:	100b883a 	mov	r5,r2
 8001cb4:	01002804 	movi	r4,160
 8001cb8:	8001d540 	call	8001d54 <XferDispatchPkt>
 8001cbc:	e0bffb05 	stb	r2,-20(fp)
        return( rcode );
 8001cc0:	e0bffb03 	ldbu	r2,-20(fp)
 8001cc4:	00000106 	br	8001ccc <XferCtrlData+0xd4>
    }
    else {              //OUT not implemented
        return( 0xff );
 8001cc8:	00bfffc4 	movi	r2,-1
    }
}
 8001ccc:	e037883a 	mov	sp,fp
 8001cd0:	dfc00117 	ldw	ra,4(sp)
 8001cd4:	df000017 	ldw	fp,0(sp)
 8001cd8:	dec00204 	addi	sp,sp,8
 8001cdc:	f800283a 	ret

08001ce0 <XferCtrlND>:
/* Control transfer with status stage and no data stage */
BYTE XferCtrlND( BYTE addr, BYTE ep, WORD nbytes, BYTE* dataptr, BOOL direction )
{
 8001ce0:	defff904 	addi	sp,sp,-28
 8001ce4:	dfc00615 	stw	ra,24(sp)
 8001ce8:	df000515 	stw	fp,20(sp)
 8001cec:	df000504 	addi	fp,sp,20
 8001cf0:	2807883a 	mov	r3,r5
 8001cf4:	3005883a 	mov	r2,r6
 8001cf8:	e1ffff15 	stw	r7,-4(fp)
 8001cfc:	e13ffc05 	stb	r4,-16(fp)
 8001d00:	e0fffd05 	stb	r3,-12(fp)
 8001d04:	e0bffe0d 	sth	r2,-8(fp)
  BYTE rcode;
    if( direction ) { //GET
 8001d08:	e0800217 	ldw	r2,8(fp)
 8001d0c:	10000626 	beq	r2,zero,8001d28 <XferCtrlND+0x48>
        rcode = XferDispatchPkt( tokOUTHS, ep );
 8001d10:	e0bffd03 	ldbu	r2,-12(fp)
 8001d14:	100b883a 	mov	r5,r2
 8001d18:	01002804 	movi	r4,160
 8001d1c:	8001d540 	call	8001d54 <XferDispatchPkt>
 8001d20:	e0bffb05 	stb	r2,-20(fp)
 8001d24:	00000506 	br	8001d3c <XferCtrlND+0x5c>
    }
    else {
        rcode = XferDispatchPkt( tokINHS, ep );
 8001d28:	e0bffd03 	ldbu	r2,-12(fp)
 8001d2c:	100b883a 	mov	r5,r2
 8001d30:	01002004 	movi	r4,128
 8001d34:	8001d540 	call	8001d54 <XferDispatchPkt>
 8001d38:	e0bffb05 	stb	r2,-20(fp)
    }
    return( rcode );
 8001d3c:	e0bffb03 	ldbu	r2,-20(fp)
}
 8001d40:	e037883a 	mov	sp,fp
 8001d44:	dfc00117 	ldw	ra,4(sp)
 8001d48:	df000017 	ldw	fp,0(sp)
 8001d4c:	dec00204 	addi	sp,sp,8
 8001d50:	f800283a 	ret

08001d54 <XferDispatchPkt>:
/* Result code: 0 success, nonzero = error condition                                                */
/* If NAK, tries to re-send up to USB_NAK_LIMIT times                                               */
/* If bus timeout, re-sends up to USB_RETRY_LIMIT times                                             */
/* return codes 0x00-0x0f are HRSLT( 0x00 being success ), 0xff means timeout                       */
BYTE XferDispatchPkt( BYTE token, BYTE ep )
{
 8001d54:	defff904 	addi	sp,sp,-28
 8001d58:	dfc00615 	stw	ra,24(sp)
 8001d5c:	df000515 	stw	fp,20(sp)
 8001d60:	df000504 	addi	fp,sp,20
 8001d64:	2007883a 	mov	r3,r4
 8001d68:	2805883a 	mov	r2,r5
 8001d6c:	e0fffe05 	stb	r3,-8(fp)
 8001d70:	e0bfff05 	stb	r2,-4(fp)
 * alt_nticks() returns the elapsed number of system clock ticks since reset.
 */

static ALT_INLINE alt_u32 ALT_ALWAYS_INLINE alt_nticks (void)
{
  return _alt_nticks;
 8001d74:	d0a6f417 	ldw	r2,-25648(gp)
 DWORD timeout = (alt_nticks()*1000)/alt_ticks_per_second() + USB_XFER_TIMEOUT;
 8001d78:	0140fa04 	movi	r5,1000
 8001d7c:	1009883a 	mov	r4,r2
 8001d80:	8002af80 	call	8002af8 <__mulsi3>
 8001d84:	1007883a 	mov	r3,r2
 * Obtain the system clock rate in ticks/s. 
 */

static ALT_INLINE alt_u32 ALT_ALWAYS_INLINE alt_ticks_per_second (void)
{
  return _alt_tick_rate;
 8001d88:	d0a6f317 	ldw	r2,-25652(gp)
 8001d8c:	100b883a 	mov	r5,r2
 8001d90:	1809883a 	mov	r4,r3
 8001d94:	8002a3c0 	call	8002a3c <__udivsi3>
 8001d98:	1084e204 	addi	r2,r2,5000
 8001d9c:	e0bffc15 	stw	r2,-16(fp)
 BYTE tmpdata;
 BYTE rcode;
 char retry_count = 0;
 8001da0:	e03ffb45 	stb	zero,-19(fp)
 BYTE nak_count = 0;
 8001da4:	e03ffb85 	stb	zero,-18(fp)

    while( 1 ) {
        MAXreg_wr( rHXFR, ( token|ep ));            //launch the transfer
 8001da8:	e0fffe03 	ldbu	r3,-8(fp)
 8001dac:	e0bfff03 	ldbu	r2,-4(fp)
 8001db0:	1884b03a 	or	r2,r3,r2
 8001db4:	10803fcc 	andi	r2,r2,255
 8001db8:	100b883a 	mov	r5,r2
 8001dbc:	01003c04 	movi	r4,240
 8001dc0:	80013bc0 	call	80013bc <MAXreg_wr>
        rcode = 0xff;
 8001dc4:	00bfffc4 	movi	r2,-1
 8001dc8:	e0bffb05 	stb	r2,-20(fp)
        while( (alt_nticks()*1000)/alt_ticks_per_second() < timeout ) {
 8001dcc:	00000d06 	br	8001e04 <XferDispatchPkt+0xb0>
            tmpdata = MAXreg_rd( rHIRQ );
 8001dd0:	01003204 	movi	r4,200
 8001dd4:	80015340 	call	8001534 <MAXreg_rd>
 8001dd8:	e0bffd05 	stb	r2,-12(fp)
            if( tmpdata & bmHXFRDNIRQ ) {
 8001ddc:	e0bffd03 	ldbu	r2,-12(fp)
 8001de0:	10803fcc 	andi	r2,r2,255
 8001de4:	1080201c 	xori	r2,r2,128
 8001de8:	10bfe004 	addi	r2,r2,-128
 8001dec:	1000050e 	bge	r2,zero,8001e04 <XferDispatchPkt+0xb0>
                MAXreg_wr( rHIRQ, bmHXFRDNIRQ );    //clear the interrupt
 8001df0:	01402004 	movi	r5,128
 8001df4:	01003204 	movi	r4,200
 8001df8:	80013bc0 	call	80013bc <MAXreg_wr>
                rcode = 0x00;
 8001dfc:	e03ffb05 	stb	zero,-20(fp)
                break;
 8001e00:	00000c06 	br	8001e34 <XferDispatchPkt+0xe0>
 * alt_nticks() returns the elapsed number of system clock ticks since reset.
 */

static ALT_INLINE alt_u32 ALT_ALWAYS_INLINE alt_nticks (void)
{
  return _alt_nticks;
 8001e04:	d0a6f417 	ldw	r2,-25648(gp)
 BYTE nak_count = 0;

    while( 1 ) {
        MAXreg_wr( rHXFR, ( token|ep ));            //launch the transfer
        rcode = 0xff;
        while( (alt_nticks()*1000)/alt_ticks_per_second() < timeout ) {
 8001e08:	0140fa04 	movi	r5,1000
 8001e0c:	1009883a 	mov	r4,r2
 8001e10:	8002af80 	call	8002af8 <__mulsi3>
 8001e14:	1007883a 	mov	r3,r2
 * Obtain the system clock rate in ticks/s. 
 */

static ALT_INLINE alt_u32 ALT_ALWAYS_INLINE alt_ticks_per_second (void)
{
  return _alt_tick_rate;
 8001e18:	d0a6f317 	ldw	r2,-25652(gp)
 8001e1c:	100b883a 	mov	r5,r2
 8001e20:	1809883a 	mov	r4,r3
 8001e24:	8002a3c0 	call	8002a3c <__udivsi3>
 8001e28:	1007883a 	mov	r3,r2
 8001e2c:	e0bffc17 	ldw	r2,-16(fp)
 8001e30:	18bfe736 	bltu	r3,r2,8001dd0 <__alt_data_end+0xfc001dd0>
                MAXreg_wr( rHIRQ, bmHXFRDNIRQ );    //clear the interrupt
                rcode = 0x00;
                break;
            }
        }
        if( rcode != 0x00 ) {               //exit if timeout
 8001e34:	e0bffb03 	ldbu	r2,-20(fp)
 8001e38:	10000226 	beq	r2,zero,8001e44 <XferDispatchPkt+0xf0>
            return( rcode );
 8001e3c:	e0bffb03 	ldbu	r2,-20(fp)
 8001e40:	00001e06 	br	8001ebc <XferDispatchPkt+0x168>
        }
        rcode = ( MAXreg_rd( rHRSL ) & 0x0f );
 8001e44:	01003e04 	movi	r4,248
 8001e48:	80015340 	call	8001534 <MAXreg_rd>
 8001e4c:	108003cc 	andi	r2,r2,15
 8001e50:	e0bffb05 	stb	r2,-20(fp)
        if( rcode == hrNAK ) {
 8001e54:	e0bffb03 	ldbu	r2,-20(fp)
 8001e58:	10800118 	cmpnei	r2,r2,4
 8001e5c:	1000071e 	bne	r2,zero,8001e7c <XferDispatchPkt+0x128>
            nak_count++;
 8001e60:	e0bffb83 	ldbu	r2,-18(fp)
 8001e64:	10800044 	addi	r2,r2,1
 8001e68:	e0bffb85 	stb	r2,-18(fp)
            if( nak_count == USB_NAK_LIMIT ) {
 8001e6c:	e0bffb83 	ldbu	r2,-18(fp)
 8001e70:	10803218 	cmpnei	r2,r2,200
 8001e74:	10000b1e 	bne	r2,zero,8001ea4 <XferDispatchPkt+0x150>
                break;
 8001e78:	00000f06 	br	8001eb8 <XferDispatchPkt+0x164>
            }
            else {
                continue;
            }
        }
        if( rcode == hrTIMEOUT ) {
 8001e7c:	e0bffb03 	ldbu	r2,-20(fp)
 8001e80:	10800398 	cmpnei	r2,r2,14
 8001e84:	1000091e 	bne	r2,zero,8001eac <XferDispatchPkt+0x158>
            retry_count++;
 8001e88:	e0bffb43 	ldbu	r2,-19(fp)
 8001e8c:	10800044 	addi	r2,r2,1
 8001e90:	e0bffb45 	stb	r2,-19(fp)
            if( retry_count == USB_RETRY_LIMIT ) {
 8001e94:	e0bffb47 	ldb	r2,-19(fp)
 8001e98:	108000d8 	cmpnei	r2,r2,3
 8001e9c:	10000526 	beq	r2,zero,8001eb4 <XferDispatchPkt+0x160>
                break;
            }
            else {
                continue;
 8001ea0:	00000106 	br	8001ea8 <XferDispatchPkt+0x154>
            nak_count++;
            if( nak_count == USB_NAK_LIMIT ) {
                break;
            }
            else {
                continue;
 8001ea4:	0001883a 	nop
            else {
                continue;
            }
        }
        else break;
    }//while( 1 )
 8001ea8:	003fbf06 	br	8001da8 <__alt_data_end+0xfc001da8>
            }
            else {
                continue;
            }
        }
        else break;
 8001eac:	0001883a 	nop
 8001eb0:	00000106 	br	8001eb8 <XferDispatchPkt+0x164>
            }
        }
        if( rcode == hrTIMEOUT ) {
            retry_count++;
            if( retry_count == USB_RETRY_LIMIT ) {
                break;
 8001eb4:	0001883a 	nop
                continue;
            }
        }
        else break;
    }//while( 1 )
    return( rcode );
 8001eb8:	e0bffb03 	ldbu	r2,-20(fp)
}
 8001ebc:	e037883a 	mov	sp,fp
 8001ec0:	dfc00117 	ldw	ra,4(sp)
 8001ec4:	df000017 	ldw	fp,0(sp)
 8001ec8:	dec00204 	addi	sp,sp,8
 8001ecc:	f800283a 	ret

08001ed0 <XferInTransfer>:
/* IN transfer to arbitrary endpoint. Assumes PERADDR is set. Handles multiple packets if necessary. Transfers 'nbytes' bytes.
    Keep sending INs and writes data to memory area pointed by 'data' */
/* rcode 0 if no errors. rcode 01-0f is relayed from prvXferDispatchPkt(). Rcode f0 means RCVDAVIRQ error,
            fe USB xfer timeout */
BYTE XferInTransfer( BYTE addr/* not sure if it's necessary */, BYTE ep, WORD nbytes, BYTE* data, BYTE maxpktsize )
{
 8001ed0:	defff804 	addi	sp,sp,-32
 8001ed4:	dfc00715 	stw	ra,28(sp)
 8001ed8:	df000615 	stw	fp,24(sp)
 8001edc:	df000604 	addi	fp,sp,24
 8001ee0:	2011883a 	mov	r8,r4
 8001ee4:	2809883a 	mov	r4,r5
 8001ee8:	3007883a 	mov	r3,r6
 8001eec:	e1fffe15 	stw	r7,-8(fp)
 8001ef0:	e0800217 	ldw	r2,8(fp)
 8001ef4:	e23ffb05 	stb	r8,-20(fp)
 8001ef8:	e13ffc05 	stb	r4,-16(fp)
 8001efc:	e0fffd0d 	sth	r3,-12(fp)
 8001f00:	e0bfff05 	stb	r2,-4(fp)
 BYTE rcode;
 BYTE i;
 BYTE tmpbyte;
 BYTE pktsize;
 WORD xfrlen = 0;
 8001f04:	e03ffa0d 	sth	zero,-24(fp)
    MAXreg_wr( rHCTL, devtable[ addr ].epinfo[ ep ].rcvToggle );    //set toggle value
 8001f08:	e0fffb03 	ldbu	r3,-20(fp)
 8001f0c:	00820074 	movhi	r2,2049
 8001f10:	109ed904 	addi	r2,r2,31588
 8001f14:	180690fa 	slli	r3,r3,3
 8001f18:	10c5883a 	add	r2,r2,r3
 8001f1c:	10c00017 	ldw	r3,0(r2)
 8001f20:	e0bffc03 	ldbu	r2,-16(fp)
 8001f24:	100490fa 	slli	r2,r2,3
 8001f28:	1885883a 	add	r2,r3,r2
 8001f2c:	10800183 	ldbu	r2,6(r2)
 8001f30:	10803fcc 	andi	r2,r2,255
 8001f34:	100b883a 	mov	r5,r2
 8001f38:	01003a04 	movi	r4,232
 8001f3c:	80013bc0 	call	80013bc <MAXreg_wr>
    while( 1 ) { // use a 'return' to exit this loop
        rcode = XferDispatchPkt( tokIN, ep );           //IN packet to EP-'endpoint'. Function takes care of NAKS.
 8001f40:	e0bffc03 	ldbu	r2,-16(fp)
 8001f44:	100b883a 	mov	r5,r2
 8001f48:	0009883a 	mov	r4,zero
 8001f4c:	8001d540 	call	8001d54 <XferDispatchPkt>
 8001f50:	e0bffa85 	stb	r2,-22(fp)
        if( rcode ) {
 8001f54:	e0bffa83 	ldbu	r2,-22(fp)
 8001f58:	10000226 	beq	r2,zero,8001f64 <XferInTransfer+0x94>
            return( rcode );                            //should be 0, indicating ACK. Else return error code.
 8001f5c:	e0bffa83 	ldbu	r2,-22(fp)
 8001f60:	00003a06 	br	800204c <XferInTransfer+0x17c>
        }
        /* check for RCVDAVIRQ and generate error if not present */
        /* the only case when absence of RCVDAVIRQ makes sense is when toggle error occurred. Need to add handling for that */
        if(( MAXreg_rd( rHIRQ ) & bmRCVDAVIRQ ) == 0 ) {
 8001f64:	01003204 	movi	r4,200
 8001f68:	80015340 	call	8001534 <MAXreg_rd>
 8001f6c:	10803fcc 	andi	r2,r2,255
 8001f70:	1080010c 	andi	r2,r2,4
 8001f74:	1000021e 	bne	r2,zero,8001f80 <XferInTransfer+0xb0>
            return ( 0xf0 );                            //receive error
 8001f78:	00bffc04 	movi	r2,-16
 8001f7c:	00003306 	br	800204c <XferInTransfer+0x17c>
        }
        pktsize = MAXreg_rd( rRCVBC );                  //number of received bytes
 8001f80:	01000c04 	movi	r4,48
 8001f84:	80015340 	call	8001534 <MAXreg_rd>
 8001f88:	e0bffac5 	stb	r2,-21(fp)
        //printf ("pktsize: %d\n", pktsize);
        data = MAXbytes_rd( rRCVFIFO, pktsize, data );
 8001f8c:	e0bffac3 	ldbu	r2,-21(fp)
 8001f90:	e1bffe17 	ldw	r6,-8(fp)
 8001f94:	100b883a 	mov	r5,r2
 8001f98:	01000204 	movi	r4,8
 8001f9c:	80015c40 	call	80015c4 <MAXbytes_rd>
 8001fa0:	e0bffe15 	stw	r2,-8(fp)
        MAXreg_wr( rHIRQ, bmRCVDAVIRQ );                // Clear the IRQ & free the buffer
 8001fa4:	01400104 	movi	r5,4
 8001fa8:	01003204 	movi	r4,200
 8001fac:	80013bc0 	call	80013bc <MAXreg_wr>
        xfrlen += pktsize;                              // add this packet's byte count to total transfer length
 8001fb0:	e0fffac3 	ldbu	r3,-21(fp)
 8001fb4:	e0bffa0b 	ldhu	r2,-24(fp)
 8001fb8:	1885883a 	add	r2,r3,r2
 8001fbc:	e0bffa0d 	sth	r2,-24(fp)
        /* The transfer is complete under two conditions:           */
        /* 1. The device sent a short packet (L.T. maxPacketSize)   */
        /* 2. 'nbytes' have been transferred.                       */
        if (( pktsize < maxpktsize ) || (xfrlen >= nbytes )) {    // have we transferred 'nbytes' bytes?
 8001fc0:	e0fffac3 	ldbu	r3,-21(fp)
 8001fc4:	e0bfff03 	ldbu	r2,-4(fp)
 8001fc8:	18800336 	bltu	r3,r2,8001fd8 <XferInTransfer+0x108>
 8001fcc:	e0fffa0b 	ldhu	r3,-24(fp)
 8001fd0:	e0bffd0b 	ldhu	r2,-12(fp)
 8001fd4:	18bfda36 	bltu	r3,r2,8001f40 <__alt_data_end+0xfc001f40>
            if( MAXreg_rd( rHRSL ) & bmRCVTOGRD ) {                 //save toggle value
 8001fd8:	01003e04 	movi	r4,248
 8001fdc:	80015340 	call	8001534 <MAXreg_rd>
 8001fe0:	10803fcc 	andi	r2,r2,255
 8001fe4:	1080040c 	andi	r2,r2,16
 8001fe8:	10000c26 	beq	r2,zero,800201c <XferInTransfer+0x14c>
                devtable[ addr ].epinfo[ ep ].rcvToggle = bmRCVTOG1;
 8001fec:	e0fffb03 	ldbu	r3,-20(fp)
 8001ff0:	00820074 	movhi	r2,2049
 8001ff4:	109ed904 	addi	r2,r2,31588
 8001ff8:	180690fa 	slli	r3,r3,3
 8001ffc:	10c5883a 	add	r2,r2,r3
 8002000:	10c00017 	ldw	r3,0(r2)
 8002004:	e0bffc03 	ldbu	r2,-16(fp)
 8002008:	100490fa 	slli	r2,r2,3
 800200c:	1885883a 	add	r2,r3,r2
 8002010:	00c00804 	movi	r3,32
 8002014:	10c00185 	stb	r3,6(r2)
 8002018:	00000b06 	br	8002048 <XferInTransfer+0x178>
            }
            else {
                devtable[ addr ].epinfo[ ep ].rcvToggle = bmRCVTOG0;
 800201c:	e0fffb03 	ldbu	r3,-20(fp)
 8002020:	00820074 	movhi	r2,2049
 8002024:	109ed904 	addi	r2,r2,31588
 8002028:	180690fa 	slli	r3,r3,3
 800202c:	10c5883a 	add	r2,r2,r3
 8002030:	10c00017 	ldw	r3,0(r2)
 8002034:	e0bffc03 	ldbu	r2,-16(fp)
 8002038:	100490fa 	slli	r2,r2,3
 800203c:	1885883a 	add	r2,r3,r2
 8002040:	00c00404 	movi	r3,16
 8002044:	10c00185 	stb	r3,6(r2)
            }
            return( 0 );
 8002048:	0005883a 	mov	r2,zero
        }
  }//while( 1 )
}
 800204c:	e037883a 	mov	sp,fp
 8002050:	dfc00117 	ldw	ra,4(sp)
 8002054:	df000017 	ldw	fp,0(sp)
 8002058:	dec00204 	addi	sp,sp,8
 800205c:	f800283a 	ret

08002060 <USB_init>:
/* initialization of USB data structures */
void USB_init( void )
{
 8002060:	defffe04 	addi	sp,sp,-8
 8002064:	df000115 	stw	fp,4(sp)
 8002068:	df000104 	addi	fp,sp,4
  BYTE i;
    for( i = 0; i < ( USB_NUMDEVICES + 1 ); i++ ) {
 800206c:	e03fff05 	stb	zero,-4(fp)
 8002070:	00001006 	br	80020b4 <USB_init+0x54>
        devtable[ i ].epinfo = NULL;       //clear device table
 8002074:	e0ffff03 	ldbu	r3,-4(fp)
 8002078:	00820074 	movhi	r2,2049
 800207c:	109ed904 	addi	r2,r2,31588
 8002080:	180690fa 	slli	r3,r3,3
 8002084:	10c5883a 	add	r2,r2,r3
 8002088:	10000015 	stw	zero,0(r2)
        devtable[ i ].devclass = 0;
 800208c:	e0ffff03 	ldbu	r3,-4(fp)
 8002090:	00820074 	movhi	r2,2049
 8002094:	109ed904 	addi	r2,r2,31588
 8002098:	180690fa 	slli	r3,r3,3
 800209c:	10c5883a 	add	r2,r2,r3
 80020a0:	10800104 	addi	r2,r2,4
 80020a4:	10000005 	stb	zero,0(r2)
}
/* initialization of USB data structures */
void USB_init( void )
{
  BYTE i;
    for( i = 0; i < ( USB_NUMDEVICES + 1 ); i++ ) {
 80020a8:	e0bfff03 	ldbu	r2,-4(fp)
 80020ac:	10800044 	addi	r2,r2,1
 80020b0:	e0bfff05 	stb	r2,-4(fp)
 80020b4:	e0bfff03 	ldbu	r2,-4(fp)
 80020b8:	10800270 	cmpltui	r2,r2,9
 80020bc:	103fed1e 	bne	r2,zero,8002074 <__alt_data_end+0xfc002074>
        devtable[ i ].epinfo = NULL;       //clear device table
        devtable[ i ].devclass = 0;
    }
    devtable[ 0 ].epinfo = &dev0ep;  //set single ep for uninitialized device
 80020c0:	00820074 	movhi	r2,2049
 80020c4:	109ed904 	addi	r2,r2,31588
 80020c8:	d0e6e404 	addi	r3,gp,-25712
 80020cc:	10c00015 	stw	r3,0(r2)
    dev0ep.MaxPktSize = 0;
 80020d0:	d026e48d 	sth	zero,-25710(gp)
    dev0ep.sndToggle = bmSNDTOG0;   //set DATA0/1 toggles to 0
 80020d4:	00801004 	movi	r2,64
 80020d8:	d0a6e545 	stb	r2,-25707(gp)
    dev0ep.rcvToggle = bmRCVTOG0;
 80020dc:	00800404 	movi	r2,16
 80020e0:	d0a6e585 	stb	r2,-25706(gp)
}
 80020e4:	0001883a 	nop
 80020e8:	e037883a 	mov	sp,fp
 80020ec:	df000017 	ldw	fp,0(sp)
 80020f0:	dec00104 	addi	sp,sp,4
 80020f4:	f800283a 	ret

080020f8 <USB_Task>:
/* error codes: 01-0f HRSLT        */
/* ff - unsupported device         */
/* fe - no address available       */
/* fd - no client driver available */
void USB_Task( void )
{
 80020f8:	deffb204 	addi	sp,sp,-312
 80020fc:	dfc04d15 	stw	ra,308(sp)
 8002100:	df004c15 	stw	fp,304(sp)
 8002104:	dc004b15 	stw	r16,300(sp)
 8002108:	df004c04 	addi	fp,sp,304
 USB_DEVICE_DESCRIPTOR buf;

 BYTE rcode, tmpdata;
 BYTE i;

    switch( usb_task_state & USB_STATE_MASK ) {
 800210c:	d0a00503 	ldbu	r2,-32748(gp)
 8002110:	10803fcc 	andi	r2,r2,255
 8002114:	10803c0c 	andi	r2,r2,240
 8002118:	10c00820 	cmpeqi	r3,r2,32
 800211c:	1801121e 	bne	r3,zero,8002568 <USB_Task+0x470>
 8002120:	10c00848 	cmpgei	r3,r2,33
 8002124:	1800041e 	bne	r3,zero,8002138 <USB_Task+0x40>
 8002128:	10000a26 	beq	r2,zero,8002154 <USB_Task+0x5c>
 800212c:	10800420 	cmpeqi	r2,r2,16
 8002130:	10001b1e 	bne	r2,zero,80021a0 <USB_Task+0xa8>
        case( USB_STATE_ERROR ):
            //vTaskDelay( LED_RATE ); //stay here if error
            break;//( USB_STATE_ERROR )
        default:
            //Should never get here
            break;
 8002134:	00017a06 	br	8002720 <USB_Task+0x628>
 USB_DEVICE_DESCRIPTOR buf;

 BYTE rcode, tmpdata;
 BYTE i;

    switch( usb_task_state & USB_STATE_MASK ) {
 8002138:	10c01020 	cmpeqi	r3,r2,64
 800213c:	18016f1e 	bne	r3,zero,80026fc <USB_Task+0x604>
 8002140:	10c03fe0 	cmpeqi	r3,r2,255
 8002144:	18016f1e 	bne	r3,zero,8002704 <USB_Task+0x60c>
 8002148:	10800c20 	cmpeqi	r2,r2,48
 800214c:	1001441e 	bne	r2,zero,8002660 <USB_Task+0x568>
        case( USB_STATE_ERROR ):
            //vTaskDelay( LED_RATE ); //stay here if error
            break;//( USB_STATE_ERROR )
        default:
            //Should never get here
            break;
 8002150:	00017306 	br	8002720 <USB_Task+0x628>
 BYTE i;

    switch( usb_task_state & USB_STATE_MASK ) {
        /* Detached state - when nothing is connected to ( or just disconnected from) USB bus   */
        case( USB_STATE_DETACHED ):
            switch( usb_task_state ) {
 8002154:	d0a00503 	ldbu	r2,-32748(gp)
 8002158:	10803fcc 	andi	r2,r2,255
 800215c:	10c000e0 	cmpeqi	r3,r2,3
 8002160:	1800091e 	bne	r3,zero,8002188 <USB_Task+0x90>
 8002164:	10c00120 	cmpeqi	r3,r2,4
 8002168:	18000b1e 	bne	r3,zero,8002198 <USB_Task+0xa0>
 800216c:	10800060 	cmpeqi	r2,r2,1
 8002170:	1000011e 	bne	r2,zero,8002178 <USB_Task+0x80>
                    break;
                case( USB_DETACHED_SUBSTATE_ILLEGAL ):
                    /* don't know what to do yet */
                    break;
            }//switch( usb_task_state )
            break;//( USB_STATE_DETACHED ):
 8002174:	00016a06 	br	8002720 <USB_Task+0x628>
        /* Detached state - when nothing is connected to ( or just disconnected from) USB bus   */
        case( USB_STATE_DETACHED ):
            switch( usb_task_state ) {
                case( USB_DETACHED_SUBSTATE_INITIALIZE ):
                    /* cleanup device data structures */
                    USB_init();
 8002178:	80020600 	call	8002060 <USB_init>
                    usb_task_state = USB_DETACHED_SUBSTATE_WAIT_FOR_DEVICE;
 800217c:	008000c4 	movi	r2,3
 8002180:	d0a00505 	stb	r2,-32748(gp)
                    break;
 8002184:	00000506 	br	800219c <USB_Task+0xa4>
                case( USB_DETACHED_SUBSTATE_WAIT_FOR_DEVICE ):
                    /* Do nothing */
                    MAXreg_wr(rHCTL,bmSAMPLEBUS);
 8002188:	01400104 	movi	r5,4
 800218c:	01003a04 	movi	r4,232
 8002190:	80013bc0 	call	80013bc <MAXreg_wr>
                    break;
 8002194:	00000106 	br	800219c <USB_Task+0xa4>
                case( USB_DETACHED_SUBSTATE_ILLEGAL ):
                    /* don't know what to do yet */
                    break;
 8002198:	0001883a 	nop
            }//switch( usb_task_state )
            break;//( USB_STATE_DETACHED ):
 800219c:	00016006 	br	8002720 <USB_Task+0x628>
            /**/
        case( USB_STATE_ATTACHED ):                     //prepare for enumeration
            switch( usb_task_state ) {
 80021a0:	d0a00503 	ldbu	r2,-32748(gp)
 80021a4:	10803fcc 	andi	r2,r2,255
 80021a8:	10bffc04 	addi	r2,r2,-16
 80021ac:	10c001a8 	cmpgeui	r3,r2,6
 80021b0:	1801561e 	bne	r3,zero,800270c <USB_Task+0x614>
 80021b4:	100690ba 	slli	r3,r2,2
 80021b8:	00820034 	movhi	r2,2048
 80021bc:	10887304 	addi	r2,r2,8652
 80021c0:	1885883a 	add	r2,r3,r2
 80021c4:	10800017 	ldw	r2,0(r2)
 80021c8:	1000683a 	jmp	r2
 80021cc:	080021e4 	muli	zero,at,135
 80021d0:	0800221c 	xori	zero,at,136
 80021d4:	08002258 	cmpnei	zero,at,137
 80021d8:	0800227c 	xorhi	zero,at,137
 80021dc:	080022bc 	xorhi	zero,at,138
 80021e0:	080022d0 	cmplti	zero,at,139
 * alt_nticks() returns the elapsed number of system clock ticks since reset.
 */

static ALT_INLINE alt_u32 ALT_ALWAYS_INLINE alt_nticks (void)
{
  return _alt_nticks;
 80021e4:	d0a6f417 	ldw	r2,-25648(gp)
                case( USB_STATE_ATTACHED ):
                    usb_delay = (alt_nticks()*1000)/alt_ticks_per_second() + 200;           //initial settle 200ms
 80021e8:	0140fa04 	movi	r5,1000
 80021ec:	1009883a 	mov	r4,r2
 80021f0:	8002af80 	call	8002af8 <__mulsi3>
 80021f4:	1007883a 	mov	r3,r2
 * Obtain the system clock rate in ticks/s. 
 */

static ALT_INLINE alt_u32 ALT_ALWAYS_INLINE alt_ticks_per_second (void)
{
  return _alt_tick_rate;
 80021f8:	d0a6f317 	ldw	r2,-25652(gp)
 80021fc:	100b883a 	mov	r5,r2
 8002200:	1809883a 	mov	r4,r3
 8002204:	8002a3c0 	call	8002a3c <__udivsi3>
 8002208:	10803204 	addi	r2,r2,200
 800220c:	d0a6e715 	stw	r2,-25700(gp)
                    usb_task_state = USB_ATTACHED_SUBSTATE_SETTLE;
 8002210:	00800444 	movi	r2,17
 8002214:	d0a00505 	stb	r2,-32748(gp)
                    break;//case( USB_STATE_ATTACHED )
 8002218:	0000d206 	br	8002564 <USB_Task+0x46c>
 * alt_nticks() returns the elapsed number of system clock ticks since reset.
 */

static ALT_INLINE alt_u32 ALT_ALWAYS_INLINE alt_nticks (void)
{
  return _alt_nticks;
 800221c:	d0a6f417 	ldw	r2,-25648(gp)
                case( USB_ATTACHED_SUBSTATE_SETTLE ):   //waiting for settle timer to expire
                    if( (alt_nticks()*1000)/alt_ticks_per_second() > usb_delay ) {
 8002220:	0140fa04 	movi	r5,1000
 8002224:	1009883a 	mov	r4,r2
 8002228:	8002af80 	call	8002af8 <__mulsi3>
 800222c:	1007883a 	mov	r3,r2
 * Obtain the system clock rate in ticks/s. 
 */

static ALT_INLINE alt_u32 ALT_ALWAYS_INLINE alt_ticks_per_second (void)
{
  return _alt_tick_rate;
 8002230:	d0a6f317 	ldw	r2,-25652(gp)
 8002234:	100b883a 	mov	r5,r2
 8002238:	1809883a 	mov	r4,r3
 800223c:	8002a3c0 	call	8002a3c <__udivsi3>
 8002240:	1007883a 	mov	r3,r2
 8002244:	d0a6e717 	ldw	r2,-25700(gp)
 8002248:	10c0c32e 	bgeu	r2,r3,8002558 <USB_Task+0x460>
                        usb_task_state = USB_ATTACHED_SUBSTATE_RESET_DEVICE;
 800224c:	00800484 	movi	r2,18
 8002250:	d0a00505 	stb	r2,-32748(gp)
                    }
                    break;//case( USB_ATTACHED_SUBSTATE_SETTLE )
 8002254:	0000c006 	br	8002558 <USB_Task+0x460>
                case( USB_ATTACHED_SUBSTATE_RESET_DEVICE ):
                    MAXreg_wr( rHIRQ, bmBUSEVENTIRQ );                               //clear bus event IRQ
 8002258:	01400044 	movi	r5,1
 800225c:	01003204 	movi	r4,200
 8002260:	80013bc0 	call	80013bc <MAXreg_wr>
                    MAXreg_wr( rHCTL, bmBUSRST );                                    //issue bus reset
 8002264:	01400044 	movi	r5,1
 8002268:	01003a04 	movi	r4,232
 800226c:	80013bc0 	call	80013bc <MAXreg_wr>
                    usb_task_state = USB_ATTACHED_SUBSTATE_WAIT_RESET_COMPLETE;
 8002270:	008004c4 	movi	r2,19
 8002274:	d0a00505 	stb	r2,-32748(gp)
                    break;//case( USB_ATTACHED_SUBSTATE_RESET_DEVICE )
 8002278:	0000ba06 	br	8002564 <USB_Task+0x46c>
                case( USB_ATTACHED_SUBSTATE_WAIT_RESET_COMPLETE ):                  //wait for bus reset and first SOF
                    if(( MAXreg_rd( rHCTL ) & bmBUSRST ) == 0 ) {
 800227c:	01003a04 	movi	r4,232
 8002280:	80015340 	call	8001534 <MAXreg_rd>
 8002284:	10803fcc 	andi	r2,r2,255
 8002288:	1080004c 	andi	r2,r2,1
 800228c:	1000b41e 	bne	r2,zero,8002560 <USB_Task+0x468>
                        tmpdata = MAXreg_rd( rMODE ) | bmSOFKAENAB;                 //start SOF generation
 8002290:	01003604 	movi	r4,216
 8002294:	80015340 	call	8001534 <MAXreg_rd>
 8002298:	10800214 	ori	r2,r2,8
 800229c:	e0bfb945 	stb	r2,-283(fp)
                        MAXreg_wr( rMODE, tmpdata );
 80022a0:	e0bfb943 	ldbu	r2,-283(fp)
 80022a4:	100b883a 	mov	r5,r2
 80022a8:	01003604 	movi	r4,216
 80022ac:	80013bc0 	call	80013bc <MAXreg_wr>
                        usb_task_state = USB_ATTACHED_SUBSTATE_WAIT_SOF;
 80022b0:	00800504 	movi	r2,20
 80022b4:	d0a00505 	stb	r2,-32748(gp)
                    }
                    break;//case( USB_ATTACHED_SUBSTATE_WAIT_RESET_COMPLETE )
 80022b8:	0000a906 	br	8002560 <USB_Task+0x468>
                case( USB_ATTACHED_SUBSTATE_WAIT_SOF ):
                    if( MAXreg_rd( rHIRQ ) | bmFRAMEIRQ ) {                     //when first SOF received we can continue
 80022bc:	01003204 	movi	r4,200
 80022c0:	80015340 	call	8001534 <MAXreg_rd>
                        usb_task_state = USB_ATTACHED_SUBSTATE_GET_DEVICE_DESCRIPTOR_SIZE;
 80022c4:	00800544 	movi	r2,21
 80022c8:	d0a00505 	stb	r2,-32748(gp)
                    }
                    break;//case( USB_ATTACHED_SUBSTATE_WAIT_SOF )
 80022cc:	0000a506 	br	8002564 <USB_Task+0x46c>
                case( USB_ATTACHED_SUBSTATE_GET_DEVICE_DESCRIPTOR_SIZE ):   //send request for first 8 bytes of device descriptor
                    devtable[ 0 ].epinfo->MaxPktSize = 0x0008;             //fill max packet size with minimum allowed
 80022d0:	00820074 	movhi	r2,2049
 80022d4:	109ed904 	addi	r2,r2,31588
 80022d8:	10800017 	ldw	r2,0(r2)
 80022dc:	00c00204 	movi	r3,8
 80022e0:	10c0008d 	sth	r3,2(r2)
                	rcode = XferGetDevDescr( 0, 0, 8, (BYTE *)&buf );       //get device descriptor size
 80022e4:	e0bfba04 	addi	r2,fp,-280
 80022e8:	d8800415 	stw	r2,16(sp)
 80022ec:	00800204 	movi	r2,8
 80022f0:	d8800315 	stw	r2,12(sp)
 80022f4:	d8000215 	stw	zero,8(sp)
 80022f8:	00800044 	movi	r2,1
 80022fc:	d8800115 	stw	r2,4(sp)
 8002300:	d8000015 	stw	zero,0(sp)
 8002304:	01c00184 	movi	r7,6
 8002308:	01802004 	movi	r6,128
 800230c:	000b883a 	mov	r5,zero
 8002310:	0009883a 	mov	r4,zero
 8002314:	8001aac0 	call	8001aac <XferCtrlReq>
 8002318:	e0bfb985 	stb	r2,-282(fp)
                    if( rcode == 0 ) {
 800231c:	e0bfb983 	ldbu	r2,-282(fp)
 8002320:	1000861e 	bne	r2,zero,800253c <USB_Task+0x444>
                        devtable[ 0 ].epinfo->MaxPktSize = buf.bMaxPacketSize0;
 8002324:	00820074 	movhi	r2,2049
 8002328:	109ed904 	addi	r2,r2,31588
 800232c:	10800017 	ldw	r2,0(r2)
 8002330:	e0ffbbc3 	ldbu	r3,-273(fp)
 8002334:	18c03fcc 	andi	r3,r3,255
 8002338:	10c0008d 	sth	r3,2(r2)

                        rcode = XferGetDevDescr( 0, 0, buf.bLength, (BYTE *)&buf );     //get full descriptor
 800233c:	e0bfba03 	ldbu	r2,-280(fp)
 8002340:	10803fcc 	andi	r2,r2,255
 8002344:	e0ffba04 	addi	r3,fp,-280
 8002348:	d8c00415 	stw	r3,16(sp)
 800234c:	d8800315 	stw	r2,12(sp)
 8002350:	d8000215 	stw	zero,8(sp)
 8002354:	00800044 	movi	r2,1
 8002358:	d8800115 	stw	r2,4(sp)
 800235c:	d8000015 	stw	zero,0(sp)
 8002360:	01c00184 	movi	r7,6
 8002364:	01802004 	movi	r6,128
 8002368:	000b883a 	mov	r5,zero
 800236c:	0009883a 	mov	r4,zero
 8002370:	8001aac0 	call	8001aac <XferCtrlReq>
 8002374:	e0bfb985 	stb	r2,-282(fp)
                        //pull the string descriptor for the product if it exists
            			//hackish, store this somewhere
                        if (buf.iManufacturer != 0)
 8002378:	e0bfbd83 	ldbu	r2,-266(fp)
 800237c:	10803fcc 	andi	r2,r2,255
 8002380:	10003426 	beq	r2,zero,8002454 <USB_Task+0x35c>
                		{
                        	USB_STRING_DESCRIPTOR strDesc;
                			rcode = XferGetStrDescr( 0, 0, 2, buf.iManufacturer, LANG_EN_US, (BYTE *)&strDesc);
 8002384:	e0bfbd83 	ldbu	r2,-266(fp)
 8002388:	10803fcc 	andi	r2,r2,255
 800238c:	e0ffbe84 	addi	r3,fp,-262
 8002390:	d8c00415 	stw	r3,16(sp)
 8002394:	00c00084 	movi	r3,2
 8002398:	d8c00315 	stw	r3,12(sp)
 800239c:	00c10244 	movi	r3,1033
 80023a0:	d8c00215 	stw	r3,8(sp)
 80023a4:	00c000c4 	movi	r3,3
 80023a8:	d8c00115 	stw	r3,4(sp)
 80023ac:	d8800015 	stw	r2,0(sp)
 80023b0:	01c00184 	movi	r7,6
 80023b4:	01802004 	movi	r6,128
 80023b8:	000b883a 	mov	r5,zero
 80023bc:	0009883a 	mov	r4,zero
 80023c0:	8001aac0 	call	8001aac <XferCtrlReq>
 80023c4:	e0bfb985 	stb	r2,-282(fp)
                			rcode = XferGetStrDescr( 0, 0, strDesc.bLength, buf.iManufacturer, LANG_EN_US, (BYTE *)&strDesc);
 80023c8:	e0bfbd83 	ldbu	r2,-266(fp)
 80023cc:	10803fcc 	andi	r2,r2,255
 80023d0:	e0ffbe83 	ldbu	r3,-262(fp)
 80023d4:	18c03fcc 	andi	r3,r3,255
 80023d8:	e13fbe84 	addi	r4,fp,-262
 80023dc:	d9000415 	stw	r4,16(sp)
 80023e0:	d8c00315 	stw	r3,12(sp)
 80023e4:	00c10244 	movi	r3,1033
 80023e8:	d8c00215 	stw	r3,8(sp)
 80023ec:	00c000c4 	movi	r3,3
 80023f0:	d8c00115 	stw	r3,4(sp)
 80023f4:	d8800015 	stw	r2,0(sp)
 80023f8:	01c00184 	movi	r7,6
 80023fc:	01802004 	movi	r6,128
 8002400:	000b883a 	mov	r5,zero
 8002404:	0009883a 	mov	r4,zero
 8002408:	8001aac0 	call	8001aac <XferCtrlReq>
 800240c:	e0bfb985 	stb	r2,-282(fp)
                			printf ("Mfgr string(%i): %s\n", buf.iManufacturer, ConvUTF8ToStr(strDesc.bString, (strDesc.bLength>>1)-1));
 8002410:	e0bfbd83 	ldbu	r2,-266(fp)
 8002414:	14003fcc 	andi	r16,r2,255
 8002418:	e0bfbe83 	ldbu	r2,-262(fp)
 800241c:	10803fcc 	andi	r2,r2,255
 8002420:	1004d07a 	srli	r2,r2,1
 8002424:	10bfffc4 	addi	r2,r2,-1
 8002428:	10c03fcc 	andi	r3,r2,255
 800242c:	e0bfbe84 	addi	r2,fp,-262
 8002430:	10800084 	addi	r2,r2,2
 8002434:	180b883a 	mov	r5,r3
 8002438:	1009883a 	mov	r4,r2
 800243c:	80028c00 	call	80028c0 <ConvUTF8ToStr>
 8002440:	100d883a 	mov	r6,r2
 8002444:	800b883a 	mov	r5,r16
 8002448:	01020074 	movhi	r4,2049
 800244c:	21100b04 	addi	r4,r4,16428
 8002450:	8002c980 	call	8002c98 <printf>
                		}
                		if (buf.iProduct != 0)
 8002454:	e0bfbdc3 	ldbu	r2,-265(fp)
 8002458:	10803fcc 	andi	r2,r2,255
 800245c:	10003426 	beq	r2,zero,8002530 <USB_Task+0x438>
                		{
                        	USB_STRING_DESCRIPTOR strDesc;
                        	rcode = XferGetStrDescr( 0, 0, 2, buf.iProduct, LANG_EN_US, (BYTE *)&strDesc);
 8002460:	e0bfbdc3 	ldbu	r2,-265(fp)
 8002464:	10803fcc 	andi	r2,r2,255
 8002468:	e0ffbe84 	addi	r3,fp,-262
 800246c:	d8c00415 	stw	r3,16(sp)
 8002470:	00c00084 	movi	r3,2
 8002474:	d8c00315 	stw	r3,12(sp)
 8002478:	00c10244 	movi	r3,1033
 800247c:	d8c00215 	stw	r3,8(sp)
 8002480:	00c000c4 	movi	r3,3
 8002484:	d8c00115 	stw	r3,4(sp)
 8002488:	d8800015 	stw	r2,0(sp)
 800248c:	01c00184 	movi	r7,6
 8002490:	01802004 	movi	r6,128
 8002494:	000b883a 	mov	r5,zero
 8002498:	0009883a 	mov	r4,zero
 800249c:	8001aac0 	call	8001aac <XferCtrlReq>
 80024a0:	e0bfb985 	stb	r2,-282(fp)
                			rcode = XferGetStrDescr( 0, 0, strDesc.bLength, buf.iProduct, LANG_EN_US, (BYTE *)&strDesc);
 80024a4:	e0bfbdc3 	ldbu	r2,-265(fp)
 80024a8:	10803fcc 	andi	r2,r2,255
 80024ac:	e0ffbe83 	ldbu	r3,-262(fp)
 80024b0:	18c03fcc 	andi	r3,r3,255
 80024b4:	e13fbe84 	addi	r4,fp,-262
 80024b8:	d9000415 	stw	r4,16(sp)
 80024bc:	d8c00315 	stw	r3,12(sp)
 80024c0:	00c10244 	movi	r3,1033
 80024c4:	d8c00215 	stw	r3,8(sp)
 80024c8:	00c000c4 	movi	r3,3
 80024cc:	d8c00115 	stw	r3,4(sp)
 80024d0:	d8800015 	stw	r2,0(sp)
 80024d4:	01c00184 	movi	r7,6
 80024d8:	01802004 	movi	r6,128
 80024dc:	000b883a 	mov	r5,zero
 80024e0:	0009883a 	mov	r4,zero
 80024e4:	8001aac0 	call	8001aac <XferCtrlReq>
 80024e8:	e0bfb985 	stb	r2,-282(fp)
                			printf ("Product string(%i): %s\n", buf.iProduct, ConvUTF8ToStr(strDesc.bString, (strDesc.bLength>>1)-1));
 80024ec:	e0bfbdc3 	ldbu	r2,-265(fp)
 80024f0:	14003fcc 	andi	r16,r2,255
 80024f4:	e0bfbe83 	ldbu	r2,-262(fp)
 80024f8:	10803fcc 	andi	r2,r2,255
 80024fc:	1004d07a 	srli	r2,r2,1
 8002500:	10bfffc4 	addi	r2,r2,-1
 8002504:	10c03fcc 	andi	r3,r2,255
 8002508:	e0bfbe84 	addi	r2,fp,-262
 800250c:	10800084 	addi	r2,r2,2
 8002510:	180b883a 	mov	r5,r3
 8002514:	1009883a 	mov	r4,r2
 8002518:	80028c00 	call	80028c0 <ConvUTF8ToStr>
 800251c:	100d883a 	mov	r6,r2
 8002520:	800b883a 	mov	r5,r16
 8002524:	01020074 	movhi	r4,2049
 8002528:	21101104 	addi	r4,r4,16452
 800252c:	8002c980 	call	8002c98 <printf>
                		}
                        usb_task_state = USB_STATE_ADDRESSING;
 8002530:	00800804 	movi	r2,32
 8002534:	d0a00505 	stb	r2,-32748(gp)
                    else {
                        usb_error = rcode;
                        last_usb_task_state = usb_task_state;
                        usb_task_state = USB_STATE_ERROR;
                    }
                    break;//case( USB_ATTACHED_SUBSTATE_GET_DEVICE_DESCRIPTOR_SIZE ):
 8002538:	00000a06 	br	8002564 <USB_Task+0x46c>
                		}
                        usb_task_state = USB_STATE_ADDRESSING;

                    }
                    else {
                        usb_error = rcode;
 800253c:	e0bfb983 	ldbu	r2,-282(fp)
 8002540:	d0a6e845 	stb	r2,-25695(gp)
                        last_usb_task_state = usb_task_state;
 8002544:	d0a00503 	ldbu	r2,-32748(gp)
 8002548:	d0a6e605 	stb	r2,-25704(gp)
                        usb_task_state = USB_STATE_ERROR;
 800254c:	00bfffc4 	movi	r2,-1
 8002550:	d0a00505 	stb	r2,-32748(gp)
                    }
                    break;//case( USB_ATTACHED_SUBSTATE_GET_DEVICE_DESCRIPTOR_SIZE ):
 8002554:	00000306 	br	8002564 <USB_Task+0x46c>
                    break;//case( USB_STATE_ATTACHED )
                case( USB_ATTACHED_SUBSTATE_SETTLE ):   //waiting for settle timer to expire
                    if( (alt_nticks()*1000)/alt_ticks_per_second() > usb_delay ) {
                        usb_task_state = USB_ATTACHED_SUBSTATE_RESET_DEVICE;
                    }
                    break;//case( USB_ATTACHED_SUBSTATE_SETTLE )
 8002558:	0001883a 	nop
 800255c:	00006b06 	br	800270c <USB_Task+0x614>
                    if(( MAXreg_rd( rHCTL ) & bmBUSRST ) == 0 ) {
                        tmpdata = MAXreg_rd( rMODE ) | bmSOFKAENAB;                 //start SOF generation
                        MAXreg_wr( rMODE, tmpdata );
                        usb_task_state = USB_ATTACHED_SUBSTATE_WAIT_SOF;
                    }
                    break;//case( USB_ATTACHED_SUBSTATE_WAIT_RESET_COMPLETE )
 8002560:	0001883a 	nop
                        last_usb_task_state = usb_task_state;
                        usb_task_state = USB_STATE_ERROR;
                    }
                    break;//case( USB_ATTACHED_SUBSTATE_GET_DEVICE_DESCRIPTOR_SIZE ):
            }//switch( usb_task_state )
            break;//case ( USB_STATE_ATTACHED )
 8002564:	00006906 	br	800270c <USB_Task+0x614>
        case( USB_STATE_ADDRESSING ):   //give device an address
            for( i = 1; i < USB_NUMDEVICES; i++ ) {
 8002568:	00800044 	movi	r2,1
 800256c:	e0bfb905 	stb	r2,-284(fp)
 8002570:	00002d06 	br	8002628 <USB_Task+0x530>
                if( devtable[ i ].epinfo == NULL ) {
 8002574:	e0ffb903 	ldbu	r3,-284(fp)
 8002578:	00820074 	movhi	r2,2049
 800257c:	109ed904 	addi	r2,r2,31588
 8002580:	180690fa 	slli	r3,r3,3
 8002584:	10c5883a 	add	r2,r2,r3
 8002588:	10800017 	ldw	r2,0(r2)
 800258c:	1000231e 	bne	r2,zero,800261c <USB_Task+0x524>
                    devtable[ i ].epinfo = devtable[ 0 ].epinfo;        //set correct MaxPktSize
 8002590:	e13fb903 	ldbu	r4,-284(fp)
 8002594:	00820074 	movhi	r2,2049
 8002598:	109ed904 	addi	r2,r2,31588
 800259c:	10c00017 	ldw	r3,0(r2)
 80025a0:	00820074 	movhi	r2,2049
 80025a4:	109ed904 	addi	r2,r2,31588
 80025a8:	200890fa 	slli	r4,r4,3
 80025ac:	1105883a 	add	r2,r2,r4
 80025b0:	10c00015 	stw	r3,0(r2)
                    //devtable[ i ].epinfo->MaxPktSize = devtable[ 0 ].epinfo->MaxPktSize;  //copy uninitialized device record to have correct MaxPktSize
                    rcode = XferSetAddr( 0, 0, i );
 80025b4:	e0bfb903 	ldbu	r2,-284(fp)
 80025b8:	d8000415 	stw	zero,16(sp)
 80025bc:	d8000315 	stw	zero,12(sp)
 80025c0:	d8000215 	stw	zero,8(sp)
 80025c4:	d8000115 	stw	zero,4(sp)
 80025c8:	d8800015 	stw	r2,0(sp)
 80025cc:	01c00144 	movi	r7,5
 80025d0:	000d883a 	mov	r6,zero
 80025d4:	000b883a 	mov	r5,zero
 80025d8:	0009883a 	mov	r4,zero
 80025dc:	8001aac0 	call	8001aac <XferCtrlReq>
 80025e0:	e0bfb985 	stb	r2,-282(fp)
                    if( rcode == 0 ) {
 80025e4:	e0bfb983 	ldbu	r2,-282(fp)
 80025e8:	1000051e 	bne	r2,zero,8002600 <USB_Task+0x508>
                        tmp_addr = i;
 80025ec:	e0bfb903 	ldbu	r2,-284(fp)
 80025f0:	d0a6e805 	stb	r2,-25696(gp)
                        usb_task_state = USB_STATE_CONFIGURING;
 80025f4:	00800c04 	movi	r2,48
 80025f8:	d0a00505 	stb	r2,-32748(gp)
                    else {
                        usb_error = rcode;          //set address error
                        last_usb_task_state = usb_task_state;
                        usb_task_state = USB_STATE_ERROR;
                    }
                    break;  //break if address assigned or error occurred during address assignment attempt
 80025fc:	00000d06 	br	8002634 <USB_Task+0x53c>
                    if( rcode == 0 ) {
                        tmp_addr = i;
                        usb_task_state = USB_STATE_CONFIGURING;
                    }
                    else {
                        usb_error = rcode;          //set address error
 8002600:	e0bfb983 	ldbu	r2,-282(fp)
 8002604:	d0a6e845 	stb	r2,-25695(gp)
                        last_usb_task_state = usb_task_state;
 8002608:	d0a00503 	ldbu	r2,-32748(gp)
 800260c:	d0a6e605 	stb	r2,-25704(gp)
                        usb_task_state = USB_STATE_ERROR;
 8002610:	00bfffc4 	movi	r2,-1
 8002614:	d0a00505 	stb	r2,-32748(gp)
                    }
                    break;  //break if address assigned or error occurred during address assignment attempt
 8002618:	00000606 	br	8002634 <USB_Task+0x53c>
                    }
                    break;//case( USB_ATTACHED_SUBSTATE_GET_DEVICE_DESCRIPTOR_SIZE ):
            }//switch( usb_task_state )
            break;//case ( USB_STATE_ATTACHED )
        case( USB_STATE_ADDRESSING ):   //give device an address
            for( i = 1; i < USB_NUMDEVICES; i++ ) {
 800261c:	e0bfb903 	ldbu	r2,-284(fp)
 8002620:	10800044 	addi	r2,r2,1
 8002624:	e0bfb905 	stb	r2,-284(fp)
 8002628:	e0bfb903 	ldbu	r2,-284(fp)
 800262c:	10800230 	cmpltui	r2,r2,8
 8002630:	103fd01e 	bne	r2,zero,8002574 <__alt_data_end+0xfc002574>
                        usb_task_state = USB_STATE_ERROR;
                    }
                    break;  //break if address assigned or error occurred during address assignment attempt
                }
            }
            if( usb_task_state == USB_STATE_ADDRESSING ) {
 8002634:	d0a00503 	ldbu	r2,-32748(gp)
 8002638:	10803fcc 	andi	r2,r2,255
 800263c:	10800818 	cmpnei	r2,r2,32
 8002640:	1000341e 	bne	r2,zero,8002714 <USB_Task+0x61c>
                usb_error = 0xfe;
 8002644:	00bfff84 	movi	r2,-2
 8002648:	d0a6e845 	stb	r2,-25695(gp)
                last_usb_task_state = usb_task_state;
 800264c:	d0a00503 	ldbu	r2,-32748(gp)
 8002650:	d0a6e605 	stb	r2,-25704(gp)
                usb_task_state = USB_STATE_ERROR;
 8002654:	00bfffc4 	movi	r2,-1
 8002658:	d0a00505 	stb	r2,-32748(gp)
            }
            break;//case ( USB_STATE_ADDRESSING )
 800265c:	00002d06 	br	8002714 <USB_Task+0x61c>
        case( USB_STATE_CONFIGURING ):              //checking for driver
			//run device class probes until one returns TRUE
            for( i = 0; i < USB_NUMCLASSES; i++ ) {
 8002660:	e03fb905 	stb	zero,-284(fp)
 8002664:	00001706 	br	80026c4 <USB_Task+0x5cc>
                rcode = ClientDriverTable[ i ].Initialize( tmp_addr, 0 );
 8002668:	e0bfb903 	ldbu	r2,-284(fp)
 800266c:	04020074 	movhi	r16,2049
 8002670:	8410d704 	addi	r16,r16,17244
 8002674:	01400304 	movi	r5,12
 8002678:	1009883a 	mov	r4,r2
 800267c:	8002af80 	call	8002af8 <__mulsi3>
 8002680:	8085883a 	add	r2,r16,r2
 8002684:	10800017 	ldw	r2,0(r2)
 8002688:	d0e6e803 	ldbu	r3,-25696(gp)
 800268c:	18c03fcc 	andi	r3,r3,255
 8002690:	000b883a 	mov	r5,zero
 8002694:	1809883a 	mov	r4,r3
 8002698:	103ee83a 	callr	r2
 800269c:	e0bfb985 	stb	r2,-282(fp)
                if( rcode == TRUE ) {
 80026a0:	e0bfb983 	ldbu	r2,-282(fp)
 80026a4:	10800058 	cmpnei	r2,r2,1
 80026a8:	1000031e 	bne	r2,zero,80026b8 <USB_Task+0x5c0>
			        usb_task_state = USB_STATE_RUNNING;
 80026ac:	00801004 	movi	r2,64
 80026b0:	d0a00505 	stb	r2,-32748(gp)
                    break;
 80026b4:	00000606 	br	80026d0 <USB_Task+0x5d8>
                usb_task_state = USB_STATE_ERROR;
            }
            break;//case ( USB_STATE_ADDRESSING )
        case( USB_STATE_CONFIGURING ):              //checking for driver
			//run device class probes until one returns TRUE
            for( i = 0; i < USB_NUMCLASSES; i++ ) {
 80026b8:	e0bfb903 	ldbu	r2,-284(fp)
 80026bc:	10800044 	addi	r2,r2,1
 80026c0:	e0bfb905 	stb	r2,-284(fp)
 80026c4:	e0bfb903 	ldbu	r2,-284(fp)
 80026c8:	10800130 	cmpltui	r2,r2,4
 80026cc:	103fe61e 	bne	r2,zero,8002668 <__alt_data_end+0xfc002668>
                if( rcode == TRUE ) {
			        usb_task_state = USB_STATE_RUNNING;
                    break;
                }
            }
            if( usb_task_state == USB_STATE_CONFIGURING ) {
 80026d0:	d0a00503 	ldbu	r2,-32748(gp)
 80026d4:	10803fcc 	andi	r2,r2,255
 80026d8:	10800c18 	cmpnei	r2,r2,48
 80026dc:	10000f1e 	bne	r2,zero,800271c <USB_Task+0x624>
                usb_error = 0xfd;
 80026e0:	00bfff44 	movi	r2,-3
 80026e4:	d0a6e845 	stb	r2,-25695(gp)
                last_usb_task_state = usb_task_state;
 80026e8:	d0a00503 	ldbu	r2,-32748(gp)
 80026ec:	d0a6e605 	stb	r2,-25704(gp)
                usb_task_state = USB_STATE_ERROR;
 80026f0:	00bfffc4 	movi	r2,-1
 80026f4:	d0a00505 	stb	r2,-32748(gp)
            }
            break;//( USB_STATE_CONFIGURING )
 80026f8:	00000806 	br	800271c <USB_Task+0x624>
        case( USB_STATE_RUNNING ):
          //vTaskDelay( LED_RATE );
            break;//( USB_STATE_RUNNING )
 80026fc:	0001883a 	nop
 8002700:	00000706 	br	8002720 <USB_Task+0x628>
        case( USB_STATE_ERROR ):
            //vTaskDelay( LED_RATE ); //stay here if error
            break;//( USB_STATE_ERROR )
 8002704:	0001883a 	nop
 8002708:	00000506 	br	8002720 <USB_Task+0x628>
                        last_usb_task_state = usb_task_state;
                        usb_task_state = USB_STATE_ERROR;
                    }
                    break;//case( USB_ATTACHED_SUBSTATE_GET_DEVICE_DESCRIPTOR_SIZE ):
            }//switch( usb_task_state )
            break;//case ( USB_STATE_ATTACHED )
 800270c:	0001883a 	nop
 8002710:	00000306 	br	8002720 <USB_Task+0x628>
            if( usb_task_state == USB_STATE_ADDRESSING ) {
                usb_error = 0xfe;
                last_usb_task_state = usb_task_state;
                usb_task_state = USB_STATE_ERROR;
            }
            break;//case ( USB_STATE_ADDRESSING )
 8002714:	0001883a 	nop
 8002718:	00000106 	br	8002720 <USB_Task+0x628>
            if( usb_task_state == USB_STATE_CONFIGURING ) {
                usb_error = 0xfd;
                last_usb_task_state = usb_task_state;
                usb_task_state = USB_STATE_ERROR;
            }
            break;//( USB_STATE_CONFIGURING )
 800271c:	0001883a 	nop
            break;//( USB_STATE_ERROR )
        default:
            //Should never get here
            break;
    }//switch( usb_task_state & STATE_MASK )
}
 8002720:	0001883a 	nop
 8002724:	e6ffff04 	addi	sp,fp,-4
 8002728:	dfc00217 	ldw	ra,8(sp)
 800272c:	df000117 	ldw	fp,4(sp)
 8002730:	dc000017 	ldw	r16,0(sp)
 8002734:	dec00304 	addi	sp,sp,12
 8002738:	f800283a 	ret

0800273c <MSDProbe>:

//place-holders for MSD (mass-storage device) drivers, we don't have them ported.
//returns TRUE if device is successfully identified and configured, otherwise returns FALSE
BOOL MSDProbe( BYTE addr, DWORD flags )
{
 800273c:	defffd04 	addi	sp,sp,-12
 8002740:	df000215 	stw	fp,8(sp)
 8002744:	df000204 	addi	fp,sp,8
 8002748:	2005883a 	mov	r2,r4
 800274c:	e17fff15 	stw	r5,-4(fp)
 8002750:	e0bffe05 	stb	r2,-8(fp)
    return( FALSE );
 8002754:	0005883a 	mov	r2,zero
}
 8002758:	e037883a 	mov	sp,fp
 800275c:	df000017 	ldw	fp,0(sp)
 8002760:	dec00104 	addi	sp,sp,4
 8002764:	f800283a 	ret

08002768 <MSDEventHandler>:

BOOL MSDEventHandler( BYTE address, BYTE event, void *data, DWORD size )
{
 8002768:	defffb04 	addi	sp,sp,-20
 800276c:	df000415 	stw	fp,16(sp)
 8002770:	df000404 	addi	fp,sp,16
 8002774:	2007883a 	mov	r3,r4
 8002778:	2805883a 	mov	r2,r5
 800277c:	e1bffe15 	stw	r6,-8(fp)
 8002780:	e1ffff15 	stw	r7,-4(fp)
 8002784:	e0fffc05 	stb	r3,-16(fp)
 8002788:	e0bffd05 	stb	r2,-12(fp)

	return( FALSE );
 800278c:	0005883a 	mov	r2,zero

}
 8002790:	e037883a 	mov	sp,fp
 8002794:	df000017 	ldw	fp,0(sp)
 8002798:	dec00104 	addi	sp,sp,4
 800279c:	f800283a 	ret

080027a0 <CDCProbe>:
//CDC (communication device class also not supported)
BOOL CDCProbe( BYTE address, DWORD flags )
{
 80027a0:	defffd04 	addi	sp,sp,-12
 80027a4:	df000215 	stw	fp,8(sp)
 80027a8:	df000204 	addi	fp,sp,8
 80027ac:	2005883a 	mov	r2,r4
 80027b0:	e17fff15 	stw	r5,-4(fp)
 80027b4:	e0bffe05 	stb	r2,-8(fp)

	return( FALSE );
 80027b8:	0005883a 	mov	r2,zero

}
 80027bc:	e037883a 	mov	sp,fp
 80027c0:	df000017 	ldw	fp,0(sp)
 80027c4:	dec00104 	addi	sp,sp,4
 80027c8:	f800283a 	ret

080027cc <CDCEventHandler>:

BOOL CDCEventHandler( BYTE address, BYTE event, void *data, DWORD size )
{
 80027cc:	defffb04 	addi	sp,sp,-20
 80027d0:	df000415 	stw	fp,16(sp)
 80027d4:	df000404 	addi	fp,sp,16
 80027d8:	2007883a 	mov	r3,r4
 80027dc:	2805883a 	mov	r2,r5
 80027e0:	e1bffe15 	stw	r6,-8(fp)
 80027e4:	e1ffff15 	stw	r7,-4(fp)
 80027e8:	e0fffc05 	stb	r3,-16(fp)
 80027ec:	e0bffd05 	stb	r2,-12(fp)
	return( FALSE );
 80027f0:	0005883a 	mov	r2,zero
}
 80027f4:	e037883a 	mov	sp,fp
 80027f8:	df000017 	ldw	fp,0(sp)
 80027fc:	dec00104 	addi	sp,sp,4
 8002800:	f800283a 	ret

08002804 <DummyProbe>:

BOOL DummyProbe( BYTE address , DWORD flags )
{
 8002804:	defffd04 	addi	sp,sp,-12
 8002808:	df000215 	stw	fp,8(sp)
 800280c:	df000204 	addi	fp,sp,8
 8002810:	2005883a 	mov	r2,r4
 8002814:	e17fff15 	stw	r5,-4(fp)
 8002818:	e0bffe05 	stb	r2,-8(fp)
	return( FALSE );
 800281c:	0005883a 	mov	r2,zero
}
 8002820:	e037883a 	mov	sp,fp
 8002824:	df000017 	ldw	fp,0(sp)
 8002828:	dec00104 	addi	sp,sp,4
 800282c:	f800283a 	ret

08002830 <DummyEventHandler>:

BOOL DummyEventHandler( BYTE address, BYTE event, void *data, DWORD size )
{
 8002830:	defffb04 	addi	sp,sp,-20
 8002834:	df000415 	stw	fp,16(sp)
 8002838:	df000404 	addi	fp,sp,16
 800283c:	2007883a 	mov	r3,r4
 8002840:	2805883a 	mov	r2,r5
 8002844:	e1bffe15 	stw	r6,-8(fp)
 8002848:	e1ffff15 	stw	r7,-4(fp)
 800284c:	e0fffc05 	stb	r3,-16(fp)
 8002850:	e0bffd05 	stb	r2,-12(fp)
	return( FALSE );
 8002854:	0005883a 	mov	r2,zero
}
 8002858:	e037883a 	mov	sp,fp
 800285c:	df000017 	ldw	fp,0(sp)
 8002860:	dec00104 	addi	sp,sp,4
 8002864:	f800283a 	ret

08002868 <GetUsbTaskState>:
/* Function to access usb_task_state variable from outside */
BYTE GetUsbTaskState( void )
{
 8002868:	deffff04 	addi	sp,sp,-4
 800286c:	df000015 	stw	fp,0(sp)
 8002870:	d839883a 	mov	fp,sp
    return( usb_task_state );
 8002874:	d0a00503 	ldbu	r2,-32748(gp)
}
 8002878:	e037883a 	mov	sp,fp
 800287c:	df000017 	ldw	fp,0(sp)
 8002880:	dec00104 	addi	sp,sp,4
 8002884:	f800283a 	ret

08002888 <GetDevtable>:
/* Function to access devtable[] from outside */
DEV_RECORD* GetDevtable( BYTE index )
{
 8002888:	defffe04 	addi	sp,sp,-8
 800288c:	df000115 	stw	fp,4(sp)
 8002890:	df000104 	addi	fp,sp,4
 8002894:	2005883a 	mov	r2,r4
 8002898:	e0bfff05 	stb	r2,-4(fp)
    return( &devtable[ index ] );
 800289c:	e0bfff03 	ldbu	r2,-4(fp)
 80028a0:	100690fa 	slli	r3,r2,3
 80028a4:	00820074 	movhi	r2,2049
 80028a8:	109ed904 	addi	r2,r2,31588
 80028ac:	1885883a 	add	r2,r3,r2
}
 80028b0:	e037883a 	mov	sp,fp
 80028b4:	df000017 	ldw	fp,0(sp)
 80028b8:	dec00104 	addi	sp,sp,4
 80028bc:	f800283a 	ret

080028c0 <ConvUTF8ToStr>:

char* ConvUTF8ToStr(BYTE* utf8, BYTE length)
{
 80028c0:	defffc04 	addi	sp,sp,-16
 80028c4:	df000315 	stw	fp,12(sp)
 80028c8:	df000304 	addi	fp,sp,12
 80028cc:	e13ffe15 	stw	r4,-8(fp)
 80028d0:	2805883a 	mov	r2,r5
 80028d4:	e0bfff05 	stb	r2,-4(fp)
	BYTE i;
	for (i = 0; i < length; i++)
 80028d8:	e03ffd05 	stb	zero,-12(fp)
 80028dc:	00000d06 	br	8002914 <ConvUTF8ToStr+0x54>
	{
		utf8[i] = utf8[2*i];
 80028e0:	e0bffd03 	ldbu	r2,-12(fp)
 80028e4:	e0fffe17 	ldw	r3,-8(fp)
 80028e8:	1887883a 	add	r3,r3,r2
 80028ec:	e0bffd03 	ldbu	r2,-12(fp)
 80028f0:	1085883a 	add	r2,r2,r2
 80028f4:	1009883a 	mov	r4,r2
 80028f8:	e0bffe17 	ldw	r2,-8(fp)
 80028fc:	1105883a 	add	r2,r2,r4
 8002900:	10800003 	ldbu	r2,0(r2)
 8002904:	18800005 	stb	r2,0(r3)
}

char* ConvUTF8ToStr(BYTE* utf8, BYTE length)
{
	BYTE i;
	for (i = 0; i < length; i++)
 8002908:	e0bffd03 	ldbu	r2,-12(fp)
 800290c:	10800044 	addi	r2,r2,1
 8002910:	e0bffd05 	stb	r2,-12(fp)
 8002914:	e0fffd03 	ldbu	r3,-12(fp)
 8002918:	e0bfff03 	ldbu	r2,-4(fp)
 800291c:	18bff036 	bltu	r3,r2,80028e0 <__alt_data_end+0xfc0028e0>
	{
		utf8[i] = utf8[2*i];
	}
	utf8[length] = 0x00;
 8002920:	e0bfff03 	ldbu	r2,-4(fp)
 8002924:	e0fffe17 	ldw	r3,-8(fp)
 8002928:	1885883a 	add	r2,r3,r2
 800292c:	10000005 	stb	zero,0(r2)
	return (char*)utf8;
 8002930:	e0bffe17 	ldw	r2,-8(fp)
}
 8002934:	e037883a 	mov	sp,fp
 8002938:	df000017 	ldw	fp,0(sp)
 800293c:	dec00104 	addi	sp,sp,4
 8002940:	f800283a 	ret

08002944 <__divsi3>:
 8002944:	20001b16 	blt	r4,zero,80029b4 <__divsi3+0x70>
 8002948:	000f883a 	mov	r7,zero
 800294c:	28001616 	blt	r5,zero,80029a8 <__divsi3+0x64>
 8002950:	200d883a 	mov	r6,r4
 8002954:	29001a2e 	bgeu	r5,r4,80029c0 <__divsi3+0x7c>
 8002958:	00800804 	movi	r2,32
 800295c:	00c00044 	movi	r3,1
 8002960:	00000106 	br	8002968 <__divsi3+0x24>
 8002964:	10000d26 	beq	r2,zero,800299c <__divsi3+0x58>
 8002968:	294b883a 	add	r5,r5,r5
 800296c:	10bfffc4 	addi	r2,r2,-1
 8002970:	18c7883a 	add	r3,r3,r3
 8002974:	293ffb36 	bltu	r5,r4,8002964 <__alt_data_end+0xfc002964>
 8002978:	0005883a 	mov	r2,zero
 800297c:	18000726 	beq	r3,zero,800299c <__divsi3+0x58>
 8002980:	0005883a 	mov	r2,zero
 8002984:	31400236 	bltu	r6,r5,8002990 <__divsi3+0x4c>
 8002988:	314dc83a 	sub	r6,r6,r5
 800298c:	10c4b03a 	or	r2,r2,r3
 8002990:	1806d07a 	srli	r3,r3,1
 8002994:	280ad07a 	srli	r5,r5,1
 8002998:	183ffa1e 	bne	r3,zero,8002984 <__alt_data_end+0xfc002984>
 800299c:	38000126 	beq	r7,zero,80029a4 <__divsi3+0x60>
 80029a0:	0085c83a 	sub	r2,zero,r2
 80029a4:	f800283a 	ret
 80029a8:	014bc83a 	sub	r5,zero,r5
 80029ac:	39c0005c 	xori	r7,r7,1
 80029b0:	003fe706 	br	8002950 <__alt_data_end+0xfc002950>
 80029b4:	0109c83a 	sub	r4,zero,r4
 80029b8:	01c00044 	movi	r7,1
 80029bc:	003fe306 	br	800294c <__alt_data_end+0xfc00294c>
 80029c0:	00c00044 	movi	r3,1
 80029c4:	003fee06 	br	8002980 <__alt_data_end+0xfc002980>

080029c8 <__modsi3>:
 80029c8:	20001716 	blt	r4,zero,8002a28 <__modsi3+0x60>
 80029cc:	000f883a 	mov	r7,zero
 80029d0:	2005883a 	mov	r2,r4
 80029d4:	28001216 	blt	r5,zero,8002a20 <__modsi3+0x58>
 80029d8:	2900162e 	bgeu	r5,r4,8002a34 <__modsi3+0x6c>
 80029dc:	01800804 	movi	r6,32
 80029e0:	00c00044 	movi	r3,1
 80029e4:	00000106 	br	80029ec <__modsi3+0x24>
 80029e8:	30000a26 	beq	r6,zero,8002a14 <__modsi3+0x4c>
 80029ec:	294b883a 	add	r5,r5,r5
 80029f0:	31bfffc4 	addi	r6,r6,-1
 80029f4:	18c7883a 	add	r3,r3,r3
 80029f8:	293ffb36 	bltu	r5,r4,80029e8 <__alt_data_end+0xfc0029e8>
 80029fc:	18000526 	beq	r3,zero,8002a14 <__modsi3+0x4c>
 8002a00:	1806d07a 	srli	r3,r3,1
 8002a04:	11400136 	bltu	r2,r5,8002a0c <__modsi3+0x44>
 8002a08:	1145c83a 	sub	r2,r2,r5
 8002a0c:	280ad07a 	srli	r5,r5,1
 8002a10:	183ffb1e 	bne	r3,zero,8002a00 <__alt_data_end+0xfc002a00>
 8002a14:	38000126 	beq	r7,zero,8002a1c <__modsi3+0x54>
 8002a18:	0085c83a 	sub	r2,zero,r2
 8002a1c:	f800283a 	ret
 8002a20:	014bc83a 	sub	r5,zero,r5
 8002a24:	003fec06 	br	80029d8 <__alt_data_end+0xfc0029d8>
 8002a28:	0109c83a 	sub	r4,zero,r4
 8002a2c:	01c00044 	movi	r7,1
 8002a30:	003fe706 	br	80029d0 <__alt_data_end+0xfc0029d0>
 8002a34:	00c00044 	movi	r3,1
 8002a38:	003ff106 	br	8002a00 <__alt_data_end+0xfc002a00>

08002a3c <__udivsi3>:
 8002a3c:	200d883a 	mov	r6,r4
 8002a40:	2900152e 	bgeu	r5,r4,8002a98 <__udivsi3+0x5c>
 8002a44:	28001416 	blt	r5,zero,8002a98 <__udivsi3+0x5c>
 8002a48:	00800804 	movi	r2,32
 8002a4c:	00c00044 	movi	r3,1
 8002a50:	00000206 	br	8002a5c <__udivsi3+0x20>
 8002a54:	10000e26 	beq	r2,zero,8002a90 <__udivsi3+0x54>
 8002a58:	28000516 	blt	r5,zero,8002a70 <__udivsi3+0x34>
 8002a5c:	294b883a 	add	r5,r5,r5
 8002a60:	10bfffc4 	addi	r2,r2,-1
 8002a64:	18c7883a 	add	r3,r3,r3
 8002a68:	293ffa36 	bltu	r5,r4,8002a54 <__alt_data_end+0xfc002a54>
 8002a6c:	18000826 	beq	r3,zero,8002a90 <__udivsi3+0x54>
 8002a70:	0005883a 	mov	r2,zero
 8002a74:	31400236 	bltu	r6,r5,8002a80 <__udivsi3+0x44>
 8002a78:	314dc83a 	sub	r6,r6,r5
 8002a7c:	10c4b03a 	or	r2,r2,r3
 8002a80:	1806d07a 	srli	r3,r3,1
 8002a84:	280ad07a 	srli	r5,r5,1
 8002a88:	183ffa1e 	bne	r3,zero,8002a74 <__alt_data_end+0xfc002a74>
 8002a8c:	f800283a 	ret
 8002a90:	0005883a 	mov	r2,zero
 8002a94:	f800283a 	ret
 8002a98:	00c00044 	movi	r3,1
 8002a9c:	003ff406 	br	8002a70 <__alt_data_end+0xfc002a70>

08002aa0 <__umodsi3>:
 8002aa0:	2005883a 	mov	r2,r4
 8002aa4:	2900122e 	bgeu	r5,r4,8002af0 <__umodsi3+0x50>
 8002aa8:	28001116 	blt	r5,zero,8002af0 <__umodsi3+0x50>
 8002aac:	01800804 	movi	r6,32
 8002ab0:	00c00044 	movi	r3,1
 8002ab4:	00000206 	br	8002ac0 <__umodsi3+0x20>
 8002ab8:	30000c26 	beq	r6,zero,8002aec <__umodsi3+0x4c>
 8002abc:	28000516 	blt	r5,zero,8002ad4 <__umodsi3+0x34>
 8002ac0:	294b883a 	add	r5,r5,r5
 8002ac4:	31bfffc4 	addi	r6,r6,-1
 8002ac8:	18c7883a 	add	r3,r3,r3
 8002acc:	293ffa36 	bltu	r5,r4,8002ab8 <__alt_data_end+0xfc002ab8>
 8002ad0:	18000626 	beq	r3,zero,8002aec <__umodsi3+0x4c>
 8002ad4:	1806d07a 	srli	r3,r3,1
 8002ad8:	11400136 	bltu	r2,r5,8002ae0 <__umodsi3+0x40>
 8002adc:	1145c83a 	sub	r2,r2,r5
 8002ae0:	280ad07a 	srli	r5,r5,1
 8002ae4:	183ffb1e 	bne	r3,zero,8002ad4 <__alt_data_end+0xfc002ad4>
 8002ae8:	f800283a 	ret
 8002aec:	f800283a 	ret
 8002af0:	00c00044 	movi	r3,1
 8002af4:	003ff706 	br	8002ad4 <__alt_data_end+0xfc002ad4>

08002af8 <__mulsi3>:
 8002af8:	0005883a 	mov	r2,zero
 8002afc:	20000726 	beq	r4,zero,8002b1c <__mulsi3+0x24>
 8002b00:	20c0004c 	andi	r3,r4,1
 8002b04:	2008d07a 	srli	r4,r4,1
 8002b08:	18000126 	beq	r3,zero,8002b10 <__mulsi3+0x18>
 8002b0c:	1145883a 	add	r2,r2,r5
 8002b10:	294b883a 	add	r5,r5,r5
 8002b14:	203ffa1e 	bne	r4,zero,8002b00 <__alt_data_end+0xfc002b00>
 8002b18:	f800283a 	ret
 8002b1c:	f800283a 	ret

08002b20 <memcpy>:
 8002b20:	defffd04 	addi	sp,sp,-12
 8002b24:	dfc00215 	stw	ra,8(sp)
 8002b28:	dc400115 	stw	r17,4(sp)
 8002b2c:	dc000015 	stw	r16,0(sp)
 8002b30:	00c003c4 	movi	r3,15
 8002b34:	2005883a 	mov	r2,r4
 8002b38:	1980452e 	bgeu	r3,r6,8002c50 <memcpy+0x130>
 8002b3c:	2906b03a 	or	r3,r5,r4
 8002b40:	18c000cc 	andi	r3,r3,3
 8002b44:	1800441e 	bne	r3,zero,8002c58 <memcpy+0x138>
 8002b48:	347ffc04 	addi	r17,r6,-16
 8002b4c:	8822d13a 	srli	r17,r17,4
 8002b50:	28c00104 	addi	r3,r5,4
 8002b54:	23400104 	addi	r13,r4,4
 8002b58:	8820913a 	slli	r16,r17,4
 8002b5c:	2b000204 	addi	r12,r5,8
 8002b60:	22c00204 	addi	r11,r4,8
 8002b64:	84000504 	addi	r16,r16,20
 8002b68:	2a800304 	addi	r10,r5,12
 8002b6c:	22400304 	addi	r9,r4,12
 8002b70:	2c21883a 	add	r16,r5,r16
 8002b74:	2811883a 	mov	r8,r5
 8002b78:	200f883a 	mov	r7,r4
 8002b7c:	41000017 	ldw	r4,0(r8)
 8002b80:	1fc00017 	ldw	ra,0(r3)
 8002b84:	63c00017 	ldw	r15,0(r12)
 8002b88:	39000015 	stw	r4,0(r7)
 8002b8c:	53800017 	ldw	r14,0(r10)
 8002b90:	6fc00015 	stw	ra,0(r13)
 8002b94:	5bc00015 	stw	r15,0(r11)
 8002b98:	4b800015 	stw	r14,0(r9)
 8002b9c:	18c00404 	addi	r3,r3,16
 8002ba0:	39c00404 	addi	r7,r7,16
 8002ba4:	42000404 	addi	r8,r8,16
 8002ba8:	6b400404 	addi	r13,r13,16
 8002bac:	63000404 	addi	r12,r12,16
 8002bb0:	5ac00404 	addi	r11,r11,16
 8002bb4:	52800404 	addi	r10,r10,16
 8002bb8:	4a400404 	addi	r9,r9,16
 8002bbc:	1c3fef1e 	bne	r3,r16,8002b7c <__alt_data_end+0xfc002b7c>
 8002bc0:	89c00044 	addi	r7,r17,1
 8002bc4:	380e913a 	slli	r7,r7,4
 8002bc8:	310003cc 	andi	r4,r6,15
 8002bcc:	02c000c4 	movi	r11,3
 8002bd0:	11c7883a 	add	r3,r2,r7
 8002bd4:	29cb883a 	add	r5,r5,r7
 8002bd8:	5900212e 	bgeu	r11,r4,8002c60 <memcpy+0x140>
 8002bdc:	1813883a 	mov	r9,r3
 8002be0:	2811883a 	mov	r8,r5
 8002be4:	200f883a 	mov	r7,r4
 8002be8:	42800017 	ldw	r10,0(r8)
 8002bec:	4a400104 	addi	r9,r9,4
 8002bf0:	39ffff04 	addi	r7,r7,-4
 8002bf4:	4abfff15 	stw	r10,-4(r9)
 8002bf8:	42000104 	addi	r8,r8,4
 8002bfc:	59fffa36 	bltu	r11,r7,8002be8 <__alt_data_end+0xfc002be8>
 8002c00:	213fff04 	addi	r4,r4,-4
 8002c04:	2008d0ba 	srli	r4,r4,2
 8002c08:	318000cc 	andi	r6,r6,3
 8002c0c:	21000044 	addi	r4,r4,1
 8002c10:	2109883a 	add	r4,r4,r4
 8002c14:	2109883a 	add	r4,r4,r4
 8002c18:	1907883a 	add	r3,r3,r4
 8002c1c:	290b883a 	add	r5,r5,r4
 8002c20:	30000626 	beq	r6,zero,8002c3c <memcpy+0x11c>
 8002c24:	198d883a 	add	r6,r3,r6
 8002c28:	29c00003 	ldbu	r7,0(r5)
 8002c2c:	18c00044 	addi	r3,r3,1
 8002c30:	29400044 	addi	r5,r5,1
 8002c34:	19ffffc5 	stb	r7,-1(r3)
 8002c38:	19bffb1e 	bne	r3,r6,8002c28 <__alt_data_end+0xfc002c28>
 8002c3c:	dfc00217 	ldw	ra,8(sp)
 8002c40:	dc400117 	ldw	r17,4(sp)
 8002c44:	dc000017 	ldw	r16,0(sp)
 8002c48:	dec00304 	addi	sp,sp,12
 8002c4c:	f800283a 	ret
 8002c50:	2007883a 	mov	r3,r4
 8002c54:	003ff206 	br	8002c20 <__alt_data_end+0xfc002c20>
 8002c58:	2007883a 	mov	r3,r4
 8002c5c:	003ff106 	br	8002c24 <__alt_data_end+0xfc002c24>
 8002c60:	200d883a 	mov	r6,r4
 8002c64:	003fee06 	br	8002c20 <__alt_data_end+0xfc002c20>

08002c68 <_printf_r>:
 8002c68:	defffd04 	addi	sp,sp,-12
 8002c6c:	2805883a 	mov	r2,r5
 8002c70:	dfc00015 	stw	ra,0(sp)
 8002c74:	d9800115 	stw	r6,4(sp)
 8002c78:	d9c00215 	stw	r7,8(sp)
 8002c7c:	21400217 	ldw	r5,8(r4)
 8002c80:	d9c00104 	addi	r7,sp,4
 8002c84:	100d883a 	mov	r6,r2
 8002c88:	8002e600 	call	8002e60 <___vfprintf_internal_r>
 8002c8c:	dfc00017 	ldw	ra,0(sp)
 8002c90:	dec00304 	addi	sp,sp,12
 8002c94:	f800283a 	ret

08002c98 <printf>:
 8002c98:	defffc04 	addi	sp,sp,-16
 8002c9c:	dfc00015 	stw	ra,0(sp)
 8002ca0:	d9400115 	stw	r5,4(sp)
 8002ca4:	d9800215 	stw	r6,8(sp)
 8002ca8:	d9c00315 	stw	r7,12(sp)
 8002cac:	00820074 	movhi	r2,2049
 8002cb0:	10979504 	addi	r2,r2,24148
 8002cb4:	10800017 	ldw	r2,0(r2)
 8002cb8:	200b883a 	mov	r5,r4
 8002cbc:	d9800104 	addi	r6,sp,4
 8002cc0:	11000217 	ldw	r4,8(r2)
 8002cc4:	800513c0 	call	800513c <__vfprintf_internal>
 8002cc8:	dfc00017 	ldw	ra,0(sp)
 8002ccc:	dec00404 	addi	sp,sp,16
 8002cd0:	f800283a 	ret

08002cd4 <_putchar_r>:
 8002cd4:	21800217 	ldw	r6,8(r4)
 8002cd8:	8009bb81 	jmpi	8009bb8 <_putc_r>

08002cdc <putchar>:
 8002cdc:	00820074 	movhi	r2,2049
 8002ce0:	10979504 	addi	r2,r2,24148
 8002ce4:	200b883a 	mov	r5,r4
 8002ce8:	11000017 	ldw	r4,0(r2)
 8002cec:	21800217 	ldw	r6,8(r4)
 8002cf0:	8009bb81 	jmpi	8009bb8 <_putc_r>

08002cf4 <_puts_r>:
 8002cf4:	defff604 	addi	sp,sp,-40
 8002cf8:	dc000715 	stw	r16,28(sp)
 8002cfc:	2021883a 	mov	r16,r4
 8002d00:	2809883a 	mov	r4,r5
 8002d04:	dc400815 	stw	r17,32(sp)
 8002d08:	dfc00915 	stw	ra,36(sp)
 8002d0c:	2823883a 	mov	r17,r5
 8002d10:	8002dc80 	call	8002dc8 <strlen>
 8002d14:	10c00044 	addi	r3,r2,1
 8002d18:	d8800115 	stw	r2,4(sp)
 8002d1c:	00820074 	movhi	r2,2049
 8002d20:	10901704 	addi	r2,r2,16476
 8002d24:	d8800215 	stw	r2,8(sp)
 8002d28:	00800044 	movi	r2,1
 8002d2c:	d8800315 	stw	r2,12(sp)
 8002d30:	00800084 	movi	r2,2
 8002d34:	dc400015 	stw	r17,0(sp)
 8002d38:	d8c00615 	stw	r3,24(sp)
 8002d3c:	dec00415 	stw	sp,16(sp)
 8002d40:	d8800515 	stw	r2,20(sp)
 8002d44:	80000226 	beq	r16,zero,8002d50 <_puts_r+0x5c>
 8002d48:	80800e17 	ldw	r2,56(r16)
 8002d4c:	10001426 	beq	r2,zero,8002da0 <_puts_r+0xac>
 8002d50:	81400217 	ldw	r5,8(r16)
 8002d54:	2880030b 	ldhu	r2,12(r5)
 8002d58:	10c8000c 	andi	r3,r2,8192
 8002d5c:	1800061e 	bne	r3,zero,8002d78 <_puts_r+0x84>
 8002d60:	29001917 	ldw	r4,100(r5)
 8002d64:	00f7ffc4 	movi	r3,-8193
 8002d68:	10880014 	ori	r2,r2,8192
 8002d6c:	20c6703a 	and	r3,r4,r3
 8002d70:	2880030d 	sth	r2,12(r5)
 8002d74:	28c01915 	stw	r3,100(r5)
 8002d78:	d9800404 	addi	r6,sp,16
 8002d7c:	8009883a 	mov	r4,r16
 8002d80:	80076a40 	call	80076a4 <__sfvwrite_r>
 8002d84:	1000091e 	bne	r2,zero,8002dac <_puts_r+0xb8>
 8002d88:	00800284 	movi	r2,10
 8002d8c:	dfc00917 	ldw	ra,36(sp)
 8002d90:	dc400817 	ldw	r17,32(sp)
 8002d94:	dc000717 	ldw	r16,28(sp)
 8002d98:	dec00a04 	addi	sp,sp,40
 8002d9c:	f800283a 	ret
 8002da0:	8009883a 	mov	r4,r16
 8002da4:	80072200 	call	8007220 <__sinit>
 8002da8:	003fe906 	br	8002d50 <__alt_data_end+0xfc002d50>
 8002dac:	00bfffc4 	movi	r2,-1
 8002db0:	003ff606 	br	8002d8c <__alt_data_end+0xfc002d8c>

08002db4 <puts>:
 8002db4:	00820074 	movhi	r2,2049
 8002db8:	10979504 	addi	r2,r2,24148
 8002dbc:	200b883a 	mov	r5,r4
 8002dc0:	11000017 	ldw	r4,0(r2)
 8002dc4:	8002cf41 	jmpi	8002cf4 <_puts_r>

08002dc8 <strlen>:
 8002dc8:	208000cc 	andi	r2,r4,3
 8002dcc:	10002026 	beq	r2,zero,8002e50 <strlen+0x88>
 8002dd0:	20800007 	ldb	r2,0(r4)
 8002dd4:	10002026 	beq	r2,zero,8002e58 <strlen+0x90>
 8002dd8:	2005883a 	mov	r2,r4
 8002ddc:	00000206 	br	8002de8 <strlen+0x20>
 8002de0:	10c00007 	ldb	r3,0(r2)
 8002de4:	18001826 	beq	r3,zero,8002e48 <strlen+0x80>
 8002de8:	10800044 	addi	r2,r2,1
 8002dec:	10c000cc 	andi	r3,r2,3
 8002df0:	183ffb1e 	bne	r3,zero,8002de0 <__alt_data_end+0xfc002de0>
 8002df4:	10c00017 	ldw	r3,0(r2)
 8002df8:	01ffbff4 	movhi	r7,65279
 8002dfc:	39ffbfc4 	addi	r7,r7,-257
 8002e00:	00ca303a 	nor	r5,zero,r3
 8002e04:	01a02074 	movhi	r6,32897
 8002e08:	19c7883a 	add	r3,r3,r7
 8002e0c:	31a02004 	addi	r6,r6,-32640
 8002e10:	1946703a 	and	r3,r3,r5
 8002e14:	1986703a 	and	r3,r3,r6
 8002e18:	1800091e 	bne	r3,zero,8002e40 <strlen+0x78>
 8002e1c:	10800104 	addi	r2,r2,4
 8002e20:	10c00017 	ldw	r3,0(r2)
 8002e24:	19cb883a 	add	r5,r3,r7
 8002e28:	00c6303a 	nor	r3,zero,r3
 8002e2c:	28c6703a 	and	r3,r5,r3
 8002e30:	1986703a 	and	r3,r3,r6
 8002e34:	183ff926 	beq	r3,zero,8002e1c <__alt_data_end+0xfc002e1c>
 8002e38:	00000106 	br	8002e40 <strlen+0x78>
 8002e3c:	10800044 	addi	r2,r2,1
 8002e40:	10c00007 	ldb	r3,0(r2)
 8002e44:	183ffd1e 	bne	r3,zero,8002e3c <__alt_data_end+0xfc002e3c>
 8002e48:	1105c83a 	sub	r2,r2,r4
 8002e4c:	f800283a 	ret
 8002e50:	2005883a 	mov	r2,r4
 8002e54:	003fe706 	br	8002df4 <__alt_data_end+0xfc002df4>
 8002e58:	0005883a 	mov	r2,zero
 8002e5c:	f800283a 	ret

08002e60 <___vfprintf_internal_r>:
 8002e60:	deffb804 	addi	sp,sp,-288
 8002e64:	dfc04715 	stw	ra,284(sp)
 8002e68:	ddc04515 	stw	r23,276(sp)
 8002e6c:	dd404315 	stw	r21,268(sp)
 8002e70:	d9002d15 	stw	r4,180(sp)
 8002e74:	282f883a 	mov	r23,r5
 8002e78:	302b883a 	mov	r21,r6
 8002e7c:	d9c02e15 	stw	r7,184(sp)
 8002e80:	df004615 	stw	fp,280(sp)
 8002e84:	dd804415 	stw	r22,272(sp)
 8002e88:	dd004215 	stw	r20,264(sp)
 8002e8c:	dcc04115 	stw	r19,260(sp)
 8002e90:	dc804015 	stw	r18,256(sp)
 8002e94:	dc403f15 	stw	r17,252(sp)
 8002e98:	dc003e15 	stw	r16,248(sp)
 8002e9c:	8007da00 	call	8007da0 <_localeconv_r>
 8002ea0:	10800017 	ldw	r2,0(r2)
 8002ea4:	1009883a 	mov	r4,r2
 8002ea8:	d8803415 	stw	r2,208(sp)
 8002eac:	8002dc80 	call	8002dc8 <strlen>
 8002eb0:	d8803715 	stw	r2,220(sp)
 8002eb4:	d8802d17 	ldw	r2,180(sp)
 8002eb8:	10000226 	beq	r2,zero,8002ec4 <___vfprintf_internal_r+0x64>
 8002ebc:	10800e17 	ldw	r2,56(r2)
 8002ec0:	1000fb26 	beq	r2,zero,80032b0 <___vfprintf_internal_r+0x450>
 8002ec4:	b880030b 	ldhu	r2,12(r23)
 8002ec8:	10c8000c 	andi	r3,r2,8192
 8002ecc:	1800061e 	bne	r3,zero,8002ee8 <___vfprintf_internal_r+0x88>
 8002ed0:	b9001917 	ldw	r4,100(r23)
 8002ed4:	00f7ffc4 	movi	r3,-8193
 8002ed8:	10880014 	ori	r2,r2,8192
 8002edc:	20c6703a 	and	r3,r4,r3
 8002ee0:	b880030d 	sth	r2,12(r23)
 8002ee4:	b8c01915 	stw	r3,100(r23)
 8002ee8:	10c0020c 	andi	r3,r2,8
 8002eec:	1800c326 	beq	r3,zero,80031fc <___vfprintf_internal_r+0x39c>
 8002ef0:	b8c00417 	ldw	r3,16(r23)
 8002ef4:	1800c126 	beq	r3,zero,80031fc <___vfprintf_internal_r+0x39c>
 8002ef8:	1080068c 	andi	r2,r2,26
 8002efc:	00c00284 	movi	r3,10
 8002f00:	10c0c626 	beq	r2,r3,800321c <___vfprintf_internal_r+0x3bc>
 8002f04:	d8c00404 	addi	r3,sp,16
 8002f08:	05020074 	movhi	r20,2049
 8002f0c:	d9001e04 	addi	r4,sp,120
 8002f10:	a5102884 	addi	r20,r20,16546
 8002f14:	d8c01e15 	stw	r3,120(sp)
 8002f18:	d8002015 	stw	zero,128(sp)
 8002f1c:	d8001f15 	stw	zero,124(sp)
 8002f20:	d8003315 	stw	zero,204(sp)
 8002f24:	d8003615 	stw	zero,216(sp)
 8002f28:	d8003815 	stw	zero,224(sp)
 8002f2c:	1811883a 	mov	r8,r3
 8002f30:	d8003915 	stw	zero,228(sp)
 8002f34:	d8003a15 	stw	zero,232(sp)
 8002f38:	d8002f15 	stw	zero,188(sp)
 8002f3c:	d9002815 	stw	r4,160(sp)
 8002f40:	a8800007 	ldb	r2,0(r21)
 8002f44:	10028b26 	beq	r2,zero,8003974 <___vfprintf_internal_r+0xb14>
 8002f48:	00c00944 	movi	r3,37
 8002f4c:	a823883a 	mov	r17,r21
 8002f50:	10c0021e 	bne	r2,r3,8002f5c <___vfprintf_internal_r+0xfc>
 8002f54:	00001406 	br	8002fa8 <___vfprintf_internal_r+0x148>
 8002f58:	10c00326 	beq	r2,r3,8002f68 <___vfprintf_internal_r+0x108>
 8002f5c:	8c400044 	addi	r17,r17,1
 8002f60:	88800007 	ldb	r2,0(r17)
 8002f64:	103ffc1e 	bne	r2,zero,8002f58 <__alt_data_end+0xfc002f58>
 8002f68:	8d61c83a 	sub	r16,r17,r21
 8002f6c:	80000e26 	beq	r16,zero,8002fa8 <___vfprintf_internal_r+0x148>
 8002f70:	d8c02017 	ldw	r3,128(sp)
 8002f74:	d8801f17 	ldw	r2,124(sp)
 8002f78:	45400015 	stw	r21,0(r8)
 8002f7c:	1c07883a 	add	r3,r3,r16
 8002f80:	10800044 	addi	r2,r2,1
 8002f84:	d8c02015 	stw	r3,128(sp)
 8002f88:	44000115 	stw	r16,4(r8)
 8002f8c:	d8801f15 	stw	r2,124(sp)
 8002f90:	00c001c4 	movi	r3,7
 8002f94:	1880a916 	blt	r3,r2,800323c <___vfprintf_internal_r+0x3dc>
 8002f98:	42000204 	addi	r8,r8,8
 8002f9c:	d9402f17 	ldw	r5,188(sp)
 8002fa0:	2c0b883a 	add	r5,r5,r16
 8002fa4:	d9402f15 	stw	r5,188(sp)
 8002fa8:	88800007 	ldb	r2,0(r17)
 8002fac:	1000aa26 	beq	r2,zero,8003258 <___vfprintf_internal_r+0x3f8>
 8002fb0:	8d400044 	addi	r21,r17,1
 8002fb4:	8c400047 	ldb	r17,1(r17)
 8002fb8:	0021883a 	mov	r16,zero
 8002fbc:	00bfffc4 	movi	r2,-1
 8002fc0:	0025883a 	mov	r18,zero
 8002fc4:	dc002905 	stb	r16,164(sp)
 8002fc8:	d8002785 	stb	zero,158(sp)
 8002fcc:	d8002b05 	stb	zero,172(sp)
 8002fd0:	d8802a15 	stw	r2,168(sp)
 8002fd4:	d8003115 	stw	zero,196(sp)
 8002fd8:	04c01604 	movi	r19,88
 8002fdc:	05800244 	movi	r22,9
 8002fe0:	9021883a 	mov	r16,r18
 8002fe4:	4039883a 	mov	fp,r8
 8002fe8:	ad400044 	addi	r21,r21,1
 8002fec:	88bff804 	addi	r2,r17,-32
 8002ff0:	98833236 	bltu	r19,r2,8003cbc <___vfprintf_internal_r+0xe5c>
 8002ff4:	100490ba 	slli	r2,r2,2
 8002ff8:	00c20034 	movhi	r3,2048
 8002ffc:	18cc0304 	addi	r3,r3,12300
 8003000:	10c5883a 	add	r2,r2,r3
 8003004:	10800017 	ldw	r2,0(r2)
 8003008:	1000683a 	jmp	r2
 800300c:	08003bb4 	orhi	zero,at,238
 8003010:	08003cbc 	xorhi	zero,at,242
 8003014:	08003cbc 	xorhi	zero,at,242
 8003018:	08003bd4 	ori	zero,at,239
 800301c:	08003cbc 	xorhi	zero,at,242
 8003020:	08003cbc 	xorhi	zero,at,242
 8003024:	08003cbc 	xorhi	zero,at,242
 8003028:	08003cbc 	xorhi	zero,at,242
 800302c:	08003cbc 	xorhi	zero,at,242
 8003030:	08003cbc 	xorhi	zero,at,242
 8003034:	080032bc 	xorhi	zero,at,202
 8003038:	08003ac4 	addi	zero,at,235
 800303c:	08003cbc 	xorhi	zero,at,242
 8003040:	08003180 	call	800318 <__alt_mem_sdram-0x77ffce8>
 8003044:	080032e0 	cmpeqi	zero,at,203
 8003048:	08003cbc 	xorhi	zero,at,242
 800304c:	08003330 	cmpltui	zero,at,204
 8003050:	0800333c 	xorhi	zero,at,204
 8003054:	0800333c 	xorhi	zero,at,204
 8003058:	0800333c 	xorhi	zero,at,204
 800305c:	0800333c 	xorhi	zero,at,204
 8003060:	0800333c 	xorhi	zero,at,204
 8003064:	0800333c 	xorhi	zero,at,204
 8003068:	0800333c 	xorhi	zero,at,204
 800306c:	0800333c 	xorhi	zero,at,204
 8003070:	0800333c 	xorhi	zero,at,204
 8003074:	08003cbc 	xorhi	zero,at,242
 8003078:	08003cbc 	xorhi	zero,at,242
 800307c:	08003cbc 	xorhi	zero,at,242
 8003080:	08003cbc 	xorhi	zero,at,242
 8003084:	08003cbc 	xorhi	zero,at,242
 8003088:	08003cbc 	xorhi	zero,at,242
 800308c:	08003cbc 	xorhi	zero,at,242
 8003090:	08003cbc 	xorhi	zero,at,242
 8003094:	08003cbc 	xorhi	zero,at,242
 8003098:	08003cbc 	xorhi	zero,at,242
 800309c:	08003378 	rdprs	zero,at,205
 80030a0:	08003440 	call	800344 <__alt_mem_sdram-0x77ffcbc>
 80030a4:	08003cbc 	xorhi	zero,at,242
 80030a8:	08003440 	call	800344 <__alt_mem_sdram-0x77ffcbc>
 80030ac:	08003cbc 	xorhi	zero,at,242
 80030b0:	08003cbc 	xorhi	zero,at,242
 80030b4:	08003cbc 	xorhi	zero,at,242
 80030b8:	08003cbc 	xorhi	zero,at,242
 80030bc:	080034ec 	andhi	zero,at,211
 80030c0:	08003cbc 	xorhi	zero,at,242
 80030c4:	08003cbc 	xorhi	zero,at,242
 80030c8:	080034f8 	rdprs	zero,at,211
 80030cc:	08003cbc 	xorhi	zero,at,242
 80030d0:	08003cbc 	xorhi	zero,at,242
 80030d4:	08003cbc 	xorhi	zero,at,242
 80030d8:	08003cbc 	xorhi	zero,at,242
 80030dc:	08003cbc 	xorhi	zero,at,242
 80030e0:	0800397c 	xorhi	zero,at,229
 80030e4:	08003cbc 	xorhi	zero,at,242
 80030e8:	08003cbc 	xorhi	zero,at,242
 80030ec:	080039e8 	cmpgeui	zero,at,231
 80030f0:	08003cbc 	xorhi	zero,at,242
 80030f4:	08003cbc 	xorhi	zero,at,242
 80030f8:	08003cbc 	xorhi	zero,at,242
 80030fc:	08003cbc 	xorhi	zero,at,242
 8003100:	08003cbc 	xorhi	zero,at,242
 8003104:	08003cbc 	xorhi	zero,at,242
 8003108:	08003cbc 	xorhi	zero,at,242
 800310c:	08003cbc 	xorhi	zero,at,242
 8003110:	08003cbc 	xorhi	zero,at,242
 8003114:	08003cbc 	xorhi	zero,at,242
 8003118:	08003c60 	cmpeqi	zero,at,241
 800311c:	08003be0 	cmpeqi	zero,at,239
 8003120:	08003440 	call	800344 <__alt_mem_sdram-0x77ffcbc>
 8003124:	08003440 	call	800344 <__alt_mem_sdram-0x77ffcbc>
 8003128:	08003440 	call	800344 <__alt_mem_sdram-0x77ffcbc>
 800312c:	08003c00 	call	8003c0 <__alt_mem_sdram-0x77ffc40>
 8003130:	08003be0 	cmpeqi	zero,at,239
 8003134:	08003cbc 	xorhi	zero,at,242
 8003138:	08003cbc 	xorhi	zero,at,242
 800313c:	08003c0c 	andi	zero,at,240
 8003140:	08003cbc 	xorhi	zero,at,242
 8003144:	08003c20 	cmpeqi	zero,at,240
 8003148:	08003aa4 	muli	zero,at,234
 800314c:	0800318c 	andi	zero,at,198
 8003150:	08003adc 	xori	zero,at,235
 8003154:	08003cbc 	xorhi	zero,at,242
 8003158:	08003ae8 	cmpgeui	zero,at,235
 800315c:	08003cbc 	xorhi	zero,at,242
 8003160:	08003b4c 	andi	zero,at,237
 8003164:	08003cbc 	xorhi	zero,at,242
 8003168:	08003cbc 	xorhi	zero,at,242
 800316c:	08003b6c 	andhi	zero,at,237
 8003170:	d8c03117 	ldw	r3,196(sp)
 8003174:	d8802e15 	stw	r2,184(sp)
 8003178:	00c7c83a 	sub	r3,zero,r3
 800317c:	d8c03115 	stw	r3,196(sp)
 8003180:	84000114 	ori	r16,r16,4
 8003184:	ac400007 	ldb	r17,0(r21)
 8003188:	003f9706 	br	8002fe8 <__alt_data_end+0xfc002fe8>
 800318c:	00800c04 	movi	r2,48
 8003190:	d8802705 	stb	r2,156(sp)
 8003194:	00801e04 	movi	r2,120
 8003198:	d8802745 	stb	r2,157(sp)
 800319c:	d9002a17 	ldw	r4,168(sp)
 80031a0:	d8802e17 	ldw	r2,184(sp)
 80031a4:	d8002785 	stb	zero,158(sp)
 80031a8:	e011883a 	mov	r8,fp
 80031ac:	10c00104 	addi	r3,r2,4
 80031b0:	14c00017 	ldw	r19,0(r2)
 80031b4:	002d883a 	mov	r22,zero
 80031b8:	80800094 	ori	r2,r16,2
 80031bc:	2002ca16 	blt	r4,zero,8003ce8 <___vfprintf_internal_r+0xe88>
 80031c0:	00bfdfc4 	movi	r2,-129
 80031c4:	80a4703a 	and	r18,r16,r2
 80031c8:	d8c02e15 	stw	r3,184(sp)
 80031cc:	94800094 	ori	r18,r18,2
 80031d0:	9802b41e 	bne	r19,zero,8003ca4 <___vfprintf_internal_r+0xe44>
 80031d4:	01420074 	movhi	r5,2049
 80031d8:	29502104 	addi	r5,r5,16516
 80031dc:	d9403915 	stw	r5,228(sp)
 80031e0:	04401e04 	movi	r17,120
 80031e4:	d8802a17 	ldw	r2,168(sp)
 80031e8:	0039883a 	mov	fp,zero
 80031ec:	1001fa26 	beq	r2,zero,80039d8 <___vfprintf_internal_r+0xb78>
 80031f0:	0027883a 	mov	r19,zero
 80031f4:	002d883a 	mov	r22,zero
 80031f8:	00021906 	br	8003a60 <___vfprintf_internal_r+0xc00>
 80031fc:	d9002d17 	ldw	r4,180(sp)
 8003200:	b80b883a 	mov	r5,r23
 8003204:	80052140 	call	8005214 <__swsetup_r>
 8003208:	1005dc1e 	bne	r2,zero,800497c <___vfprintf_internal_r+0x1b1c>
 800320c:	b880030b 	ldhu	r2,12(r23)
 8003210:	00c00284 	movi	r3,10
 8003214:	1080068c 	andi	r2,r2,26
 8003218:	10ff3a1e 	bne	r2,r3,8002f04 <__alt_data_end+0xfc002f04>
 800321c:	b880038f 	ldh	r2,14(r23)
 8003220:	103f3816 	blt	r2,zero,8002f04 <__alt_data_end+0xfc002f04>
 8003224:	d9c02e17 	ldw	r7,184(sp)
 8003228:	d9002d17 	ldw	r4,180(sp)
 800322c:	a80d883a 	mov	r6,r21
 8003230:	b80b883a 	mov	r5,r23
 8003234:	80051580 	call	8005158 <__sbprintf>
 8003238:	00001106 	br	8003280 <___vfprintf_internal_r+0x420>
 800323c:	d9002d17 	ldw	r4,180(sp)
 8003240:	d9801e04 	addi	r6,sp,120
 8003244:	b80b883a 	mov	r5,r23
 8003248:	800a6600 	call	800a660 <__sprint_r>
 800324c:	1000081e 	bne	r2,zero,8003270 <___vfprintf_internal_r+0x410>
 8003250:	da000404 	addi	r8,sp,16
 8003254:	003f5106 	br	8002f9c <__alt_data_end+0xfc002f9c>
 8003258:	d8802017 	ldw	r2,128(sp)
 800325c:	10000426 	beq	r2,zero,8003270 <___vfprintf_internal_r+0x410>
 8003260:	d9002d17 	ldw	r4,180(sp)
 8003264:	d9801e04 	addi	r6,sp,120
 8003268:	b80b883a 	mov	r5,r23
 800326c:	800a6600 	call	800a660 <__sprint_r>
 8003270:	b880030b 	ldhu	r2,12(r23)
 8003274:	1080100c 	andi	r2,r2,64
 8003278:	1005c01e 	bne	r2,zero,800497c <___vfprintf_internal_r+0x1b1c>
 800327c:	d8802f17 	ldw	r2,188(sp)
 8003280:	dfc04717 	ldw	ra,284(sp)
 8003284:	df004617 	ldw	fp,280(sp)
 8003288:	ddc04517 	ldw	r23,276(sp)
 800328c:	dd804417 	ldw	r22,272(sp)
 8003290:	dd404317 	ldw	r21,268(sp)
 8003294:	dd004217 	ldw	r20,264(sp)
 8003298:	dcc04117 	ldw	r19,260(sp)
 800329c:	dc804017 	ldw	r18,256(sp)
 80032a0:	dc403f17 	ldw	r17,252(sp)
 80032a4:	dc003e17 	ldw	r16,248(sp)
 80032a8:	dec04804 	addi	sp,sp,288
 80032ac:	f800283a 	ret
 80032b0:	d9002d17 	ldw	r4,180(sp)
 80032b4:	80072200 	call	8007220 <__sinit>
 80032b8:	003f0206 	br	8002ec4 <__alt_data_end+0xfc002ec4>
 80032bc:	d9002e17 	ldw	r4,184(sp)
 80032c0:	d9402e17 	ldw	r5,184(sp)
 80032c4:	21000017 	ldw	r4,0(r4)
 80032c8:	28800104 	addi	r2,r5,4
 80032cc:	d9003115 	stw	r4,196(sp)
 80032d0:	203fa716 	blt	r4,zero,8003170 <__alt_data_end+0xfc003170>
 80032d4:	d8802e15 	stw	r2,184(sp)
 80032d8:	ac400007 	ldb	r17,0(r21)
 80032dc:	003f4206 	br	8002fe8 <__alt_data_end+0xfc002fe8>
 80032e0:	ac400007 	ldb	r17,0(r21)
 80032e4:	01000a84 	movi	r4,42
 80032e8:	a8c00044 	addi	r3,r21,1
 80032ec:	89075826 	beq	r17,r4,8005050 <___vfprintf_internal_r+0x21f0>
 80032f0:	8cbff404 	addi	r18,r17,-48
 80032f4:	b486ae36 	bltu	r22,r18,8004db0 <___vfprintf_internal_r+0x1f50>
 80032f8:	0009883a 	mov	r4,zero
 80032fc:	1823883a 	mov	r17,r3
 8003300:	01400284 	movi	r5,10
 8003304:	8002af80 	call	8002af8 <__mulsi3>
 8003308:	88c00007 	ldb	r3,0(r17)
 800330c:	1489883a 	add	r4,r2,r18
 8003310:	8d400044 	addi	r21,r17,1
 8003314:	1cbff404 	addi	r18,r3,-48
 8003318:	a823883a 	mov	r17,r21
 800331c:	b4bff82e 	bgeu	r22,r18,8003300 <__alt_data_end+0xfc003300>
 8003320:	1823883a 	mov	r17,r3
 8003324:	2005f616 	blt	r4,zero,8004b00 <___vfprintf_internal_r+0x1ca0>
 8003328:	d9002a15 	stw	r4,168(sp)
 800332c:	003f2f06 	br	8002fec <__alt_data_end+0xfc002fec>
 8003330:	84002014 	ori	r16,r16,128
 8003334:	ac400007 	ldb	r17,0(r21)
 8003338:	003f2b06 	br	8002fe8 <__alt_data_end+0xfc002fe8>
 800333c:	8cbff404 	addi	r18,r17,-48
 8003340:	d8003115 	stw	zero,196(sp)
 8003344:	0009883a 	mov	r4,zero
 8003348:	a823883a 	mov	r17,r21
 800334c:	01400284 	movi	r5,10
 8003350:	8002af80 	call	8002af8 <__mulsi3>
 8003354:	88c00007 	ldb	r3,0(r17)
 8003358:	9089883a 	add	r4,r18,r2
 800335c:	ad400044 	addi	r21,r21,1
 8003360:	1cbff404 	addi	r18,r3,-48
 8003364:	a823883a 	mov	r17,r21
 8003368:	b4bff82e 	bgeu	r22,r18,800334c <__alt_data_end+0xfc00334c>
 800336c:	1823883a 	mov	r17,r3
 8003370:	d9003115 	stw	r4,196(sp)
 8003374:	003f1d06 	br	8002fec <__alt_data_end+0xfc002fec>
 8003378:	8025883a 	mov	r18,r16
 800337c:	dc002903 	ldbu	r16,164(sp)
 8003380:	e011883a 	mov	r8,fp
 8003384:	84003fcc 	andi	r16,r16,255
 8003388:	8007531e 	bne	r16,zero,80050d8 <___vfprintf_internal_r+0x2278>
 800338c:	94800414 	ori	r18,r18,16
 8003390:	9080080c 	andi	r2,r18,32
 8003394:	1003a326 	beq	r2,zero,8004224 <___vfprintf_internal_r+0x13c4>
 8003398:	d9002e17 	ldw	r4,184(sp)
 800339c:	20800117 	ldw	r2,4(r4)
 80033a0:	24c00017 	ldw	r19,0(r4)
 80033a4:	21000204 	addi	r4,r4,8
 80033a8:	d9002e15 	stw	r4,184(sp)
 80033ac:	102d883a 	mov	r22,r2
 80033b0:	10047316 	blt	r2,zero,8004580 <___vfprintf_internal_r+0x1720>
 80033b4:	d9002a17 	ldw	r4,168(sp)
 80033b8:	df002783 	ldbu	fp,158(sp)
 80033bc:	2003e416 	blt	r4,zero,8004350 <___vfprintf_internal_r+0x14f0>
 80033c0:	00ffdfc4 	movi	r3,-129
 80033c4:	9d84b03a 	or	r2,r19,r22
 80033c8:	90e4703a 	and	r18,r18,r3
 80033cc:	10018026 	beq	r2,zero,80039d0 <___vfprintf_internal_r+0xb70>
 80033d0:	b003ab26 	beq	r22,zero,8004280 <___vfprintf_internal_r+0x1420>
 80033d4:	dc402915 	stw	r17,164(sp)
 80033d8:	dc001e04 	addi	r16,sp,120
 80033dc:	b023883a 	mov	r17,r22
 80033e0:	402d883a 	mov	r22,r8
 80033e4:	9809883a 	mov	r4,r19
 80033e8:	880b883a 	mov	r5,r17
 80033ec:	01800284 	movi	r6,10
 80033f0:	000f883a 	mov	r7,zero
 80033f4:	800cba40 	call	800cba4 <__umoddi3>
 80033f8:	10800c04 	addi	r2,r2,48
 80033fc:	843fffc4 	addi	r16,r16,-1
 8003400:	9809883a 	mov	r4,r19
 8003404:	880b883a 	mov	r5,r17
 8003408:	80800005 	stb	r2,0(r16)
 800340c:	01800284 	movi	r6,10
 8003410:	000f883a 	mov	r7,zero
 8003414:	800c5a80 	call	800c5a8 <__udivdi3>
 8003418:	1027883a 	mov	r19,r2
 800341c:	10c4b03a 	or	r2,r2,r3
 8003420:	1823883a 	mov	r17,r3
 8003424:	103fef1e 	bne	r2,zero,80033e4 <__alt_data_end+0xfc0033e4>
 8003428:	d8c02817 	ldw	r3,160(sp)
 800342c:	dc402917 	ldw	r17,164(sp)
 8003430:	b011883a 	mov	r8,r22
 8003434:	1c07c83a 	sub	r3,r3,r16
 8003438:	d8c02b15 	stw	r3,172(sp)
 800343c:	00005f06 	br	80035bc <___vfprintf_internal_r+0x75c>
 8003440:	8025883a 	mov	r18,r16
 8003444:	dc002903 	ldbu	r16,164(sp)
 8003448:	e011883a 	mov	r8,fp
 800344c:	84003fcc 	andi	r16,r16,255
 8003450:	80071e1e 	bne	r16,zero,80050cc <___vfprintf_internal_r+0x226c>
 8003454:	9080020c 	andi	r2,r18,8
 8003458:	1004af26 	beq	r2,zero,8004718 <___vfprintf_internal_r+0x18b8>
 800345c:	d9002e17 	ldw	r4,184(sp)
 8003460:	d9402e17 	ldw	r5,184(sp)
 8003464:	d8802e17 	ldw	r2,184(sp)
 8003468:	21000017 	ldw	r4,0(r4)
 800346c:	29400117 	ldw	r5,4(r5)
 8003470:	10800204 	addi	r2,r2,8
 8003474:	d9003615 	stw	r4,216(sp)
 8003478:	d9403815 	stw	r5,224(sp)
 800347c:	d8802e15 	stw	r2,184(sp)
 8003480:	d9003617 	ldw	r4,216(sp)
 8003484:	d9403817 	ldw	r5,224(sp)
 8003488:	da003d15 	stw	r8,244(sp)
 800348c:	04000044 	movi	r16,1
 8003490:	800a2840 	call	800a284 <__fpclassifyd>
 8003494:	da003d17 	ldw	r8,244(sp)
 8003498:	1404441e 	bne	r2,r16,80045ac <___vfprintf_internal_r+0x174c>
 800349c:	d9003617 	ldw	r4,216(sp)
 80034a0:	d9403817 	ldw	r5,224(sp)
 80034a4:	000d883a 	mov	r6,zero
 80034a8:	000f883a 	mov	r7,zero
 80034ac:	800e5480 	call	800e548 <__ledf2>
 80034b0:	da003d17 	ldw	r8,244(sp)
 80034b4:	1005e316 	blt	r2,zero,8004c44 <___vfprintf_internal_r+0x1de4>
 80034b8:	df002783 	ldbu	fp,158(sp)
 80034bc:	008011c4 	movi	r2,71
 80034c0:	1445580e 	bge	r2,r17,8004a24 <___vfprintf_internal_r+0x1bc4>
 80034c4:	04020074 	movhi	r16,2049
 80034c8:	84101904 	addi	r16,r16,16484
 80034cc:	00c000c4 	movi	r3,3
 80034d0:	00bfdfc4 	movi	r2,-129
 80034d4:	d8c02915 	stw	r3,164(sp)
 80034d8:	90a4703a 	and	r18,r18,r2
 80034dc:	d8c02b15 	stw	r3,172(sp)
 80034e0:	d8002a15 	stw	zero,168(sp)
 80034e4:	d8003215 	stw	zero,200(sp)
 80034e8:	00003a06 	br	80035d4 <___vfprintf_internal_r+0x774>
 80034ec:	84000214 	ori	r16,r16,8
 80034f0:	ac400007 	ldb	r17,0(r21)
 80034f4:	003ebc06 	br	8002fe8 <__alt_data_end+0xfc002fe8>
 80034f8:	8025883a 	mov	r18,r16
 80034fc:	dc002903 	ldbu	r16,164(sp)
 8003500:	e011883a 	mov	r8,fp
 8003504:	84003fcc 	andi	r16,r16,255
 8003508:	8007001e 	bne	r16,zero,800510c <___vfprintf_internal_r+0x22ac>
 800350c:	94800414 	ori	r18,r18,16
 8003510:	9080080c 	andi	r2,r18,32
 8003514:	1002fa26 	beq	r2,zero,8004100 <___vfprintf_internal_r+0x12a0>
 8003518:	d9002e17 	ldw	r4,184(sp)
 800351c:	d9402a17 	ldw	r5,168(sp)
 8003520:	d8002785 	stb	zero,158(sp)
 8003524:	20800204 	addi	r2,r4,8
 8003528:	24c00017 	ldw	r19,0(r4)
 800352c:	25800117 	ldw	r22,4(r4)
 8003530:	2804b116 	blt	r5,zero,80047f8 <___vfprintf_internal_r+0x1998>
 8003534:	013fdfc4 	movi	r4,-129
 8003538:	9d86b03a 	or	r3,r19,r22
 800353c:	d8802e15 	stw	r2,184(sp)
 8003540:	9124703a 	and	r18,r18,r4
 8003544:	1802fb1e 	bne	r3,zero,8004134 <___vfprintf_internal_r+0x12d4>
 8003548:	d8c02a17 	ldw	r3,168(sp)
 800354c:	0039883a 	mov	fp,zero
 8003550:	1805e526 	beq	r3,zero,8004ce8 <___vfprintf_internal_r+0x1e88>
 8003554:	0027883a 	mov	r19,zero
 8003558:	002d883a 	mov	r22,zero
 800355c:	dc001e04 	addi	r16,sp,120
 8003560:	9806d0fa 	srli	r3,r19,3
 8003564:	b008977a 	slli	r4,r22,29
 8003568:	b02cd0fa 	srli	r22,r22,3
 800356c:	9cc001cc 	andi	r19,r19,7
 8003570:	98800c04 	addi	r2,r19,48
 8003574:	843fffc4 	addi	r16,r16,-1
 8003578:	20e6b03a 	or	r19,r4,r3
 800357c:	80800005 	stb	r2,0(r16)
 8003580:	9d86b03a 	or	r3,r19,r22
 8003584:	183ff61e 	bne	r3,zero,8003560 <__alt_data_end+0xfc003560>
 8003588:	90c0004c 	andi	r3,r18,1
 800358c:	18014126 	beq	r3,zero,8003a94 <___vfprintf_internal_r+0xc34>
 8003590:	10803fcc 	andi	r2,r2,255
 8003594:	1080201c 	xori	r2,r2,128
 8003598:	10bfe004 	addi	r2,r2,-128
 800359c:	00c00c04 	movi	r3,48
 80035a0:	10c13c26 	beq	r2,r3,8003a94 <___vfprintf_internal_r+0xc34>
 80035a4:	80ffffc5 	stb	r3,-1(r16)
 80035a8:	d8c02817 	ldw	r3,160(sp)
 80035ac:	80bfffc4 	addi	r2,r16,-1
 80035b0:	1021883a 	mov	r16,r2
 80035b4:	1887c83a 	sub	r3,r3,r2
 80035b8:	d8c02b15 	stw	r3,172(sp)
 80035bc:	d8802b17 	ldw	r2,172(sp)
 80035c0:	d9002a17 	ldw	r4,168(sp)
 80035c4:	1100010e 	bge	r2,r4,80035cc <___vfprintf_internal_r+0x76c>
 80035c8:	2005883a 	mov	r2,r4
 80035cc:	d8802915 	stw	r2,164(sp)
 80035d0:	d8003215 	stw	zero,200(sp)
 80035d4:	e7003fcc 	andi	fp,fp,255
 80035d8:	e700201c 	xori	fp,fp,128
 80035dc:	e73fe004 	addi	fp,fp,-128
 80035e0:	e0000326 	beq	fp,zero,80035f0 <___vfprintf_internal_r+0x790>
 80035e4:	d8c02917 	ldw	r3,164(sp)
 80035e8:	18c00044 	addi	r3,r3,1
 80035ec:	d8c02915 	stw	r3,164(sp)
 80035f0:	90c0008c 	andi	r3,r18,2
 80035f4:	d8c02c15 	stw	r3,176(sp)
 80035f8:	18000326 	beq	r3,zero,8003608 <___vfprintf_internal_r+0x7a8>
 80035fc:	d8c02917 	ldw	r3,164(sp)
 8003600:	18c00084 	addi	r3,r3,2
 8003604:	d8c02915 	stw	r3,164(sp)
 8003608:	90c0210c 	andi	r3,r18,132
 800360c:	d8c03015 	stw	r3,192(sp)
 8003610:	1801c51e 	bne	r3,zero,8003d28 <___vfprintf_internal_r+0xec8>
 8003614:	d9003117 	ldw	r4,196(sp)
 8003618:	d8c02917 	ldw	r3,164(sp)
 800361c:	20e7c83a 	sub	r19,r4,r3
 8003620:	04c1c10e 	bge	zero,r19,8003d28 <___vfprintf_internal_r+0xec8>
 8003624:	02400404 	movi	r9,16
 8003628:	d8c02017 	ldw	r3,128(sp)
 800362c:	d8801f17 	ldw	r2,124(sp)
 8003630:	4cc52f0e 	bge	r9,r19,8004af0 <___vfprintf_internal_r+0x1c90>
 8003634:	01420074 	movhi	r5,2049
 8003638:	29502c84 	addi	r5,r5,16562
 800363c:	dc403b15 	stw	r17,236(sp)
 8003640:	d9403515 	stw	r5,212(sp)
 8003644:	9823883a 	mov	r17,r19
 8003648:	482d883a 	mov	r22,r9
 800364c:	9027883a 	mov	r19,r18
 8003650:	070001c4 	movi	fp,7
 8003654:	8025883a 	mov	r18,r16
 8003658:	dc002d17 	ldw	r16,180(sp)
 800365c:	00000306 	br	800366c <___vfprintf_internal_r+0x80c>
 8003660:	8c7ffc04 	addi	r17,r17,-16
 8003664:	42000204 	addi	r8,r8,8
 8003668:	b440130e 	bge	r22,r17,80036b8 <___vfprintf_internal_r+0x858>
 800366c:	01020074 	movhi	r4,2049
 8003670:	18c00404 	addi	r3,r3,16
 8003674:	10800044 	addi	r2,r2,1
 8003678:	21102c84 	addi	r4,r4,16562
 800367c:	41000015 	stw	r4,0(r8)
 8003680:	45800115 	stw	r22,4(r8)
 8003684:	d8c02015 	stw	r3,128(sp)
 8003688:	d8801f15 	stw	r2,124(sp)
 800368c:	e0bff40e 	bge	fp,r2,8003660 <__alt_data_end+0xfc003660>
 8003690:	d9801e04 	addi	r6,sp,120
 8003694:	b80b883a 	mov	r5,r23
 8003698:	8009883a 	mov	r4,r16
 800369c:	800a6600 	call	800a660 <__sprint_r>
 80036a0:	103ef31e 	bne	r2,zero,8003270 <__alt_data_end+0xfc003270>
 80036a4:	8c7ffc04 	addi	r17,r17,-16
 80036a8:	d8c02017 	ldw	r3,128(sp)
 80036ac:	d8801f17 	ldw	r2,124(sp)
 80036b0:	da000404 	addi	r8,sp,16
 80036b4:	b47fed16 	blt	r22,r17,800366c <__alt_data_end+0xfc00366c>
 80036b8:	9021883a 	mov	r16,r18
 80036bc:	9825883a 	mov	r18,r19
 80036c0:	8827883a 	mov	r19,r17
 80036c4:	dc403b17 	ldw	r17,236(sp)
 80036c8:	d9403517 	ldw	r5,212(sp)
 80036cc:	98c7883a 	add	r3,r19,r3
 80036d0:	10800044 	addi	r2,r2,1
 80036d4:	41400015 	stw	r5,0(r8)
 80036d8:	44c00115 	stw	r19,4(r8)
 80036dc:	d8c02015 	stw	r3,128(sp)
 80036e0:	d8801f15 	stw	r2,124(sp)
 80036e4:	010001c4 	movi	r4,7
 80036e8:	2082c516 	blt	r4,r2,8004200 <___vfprintf_internal_r+0x13a0>
 80036ec:	df002787 	ldb	fp,158(sp)
 80036f0:	42000204 	addi	r8,r8,8
 80036f4:	e0000c26 	beq	fp,zero,8003728 <___vfprintf_internal_r+0x8c8>
 80036f8:	d8801f17 	ldw	r2,124(sp)
 80036fc:	d9002784 	addi	r4,sp,158
 8003700:	18c00044 	addi	r3,r3,1
 8003704:	10800044 	addi	r2,r2,1
 8003708:	41000015 	stw	r4,0(r8)
 800370c:	01000044 	movi	r4,1
 8003710:	41000115 	stw	r4,4(r8)
 8003714:	d8c02015 	stw	r3,128(sp)
 8003718:	d8801f15 	stw	r2,124(sp)
 800371c:	010001c4 	movi	r4,7
 8003720:	20825e16 	blt	r4,r2,800409c <___vfprintf_internal_r+0x123c>
 8003724:	42000204 	addi	r8,r8,8
 8003728:	d8802c17 	ldw	r2,176(sp)
 800372c:	10000c26 	beq	r2,zero,8003760 <___vfprintf_internal_r+0x900>
 8003730:	d8801f17 	ldw	r2,124(sp)
 8003734:	d9002704 	addi	r4,sp,156
 8003738:	18c00084 	addi	r3,r3,2
 800373c:	10800044 	addi	r2,r2,1
 8003740:	41000015 	stw	r4,0(r8)
 8003744:	01000084 	movi	r4,2
 8003748:	41000115 	stw	r4,4(r8)
 800374c:	d8c02015 	stw	r3,128(sp)
 8003750:	d8801f15 	stw	r2,124(sp)
 8003754:	010001c4 	movi	r4,7
 8003758:	20825816 	blt	r4,r2,80040bc <___vfprintf_internal_r+0x125c>
 800375c:	42000204 	addi	r8,r8,8
 8003760:	d9003017 	ldw	r4,192(sp)
 8003764:	00802004 	movi	r2,128
 8003768:	2081bb26 	beq	r4,r2,8003e58 <___vfprintf_internal_r+0xff8>
 800376c:	d9402a17 	ldw	r5,168(sp)
 8003770:	d8802b17 	ldw	r2,172(sp)
 8003774:	28adc83a 	sub	r22,r5,r2
 8003778:	0580310e 	bge	zero,r22,8003840 <___vfprintf_internal_r+0x9e0>
 800377c:	07000404 	movi	fp,16
 8003780:	d8801f17 	ldw	r2,124(sp)
 8003784:	e584360e 	bge	fp,r22,8004860 <___vfprintf_internal_r+0x1a00>
 8003788:	01420074 	movhi	r5,2049
 800378c:	29502884 	addi	r5,r5,16546
 8003790:	dc402a15 	stw	r17,168(sp)
 8003794:	d9402c15 	stw	r5,176(sp)
 8003798:	b023883a 	mov	r17,r22
 800379c:	04c001c4 	movi	r19,7
 80037a0:	a82d883a 	mov	r22,r21
 80037a4:	902b883a 	mov	r21,r18
 80037a8:	8025883a 	mov	r18,r16
 80037ac:	dc002d17 	ldw	r16,180(sp)
 80037b0:	00000306 	br	80037c0 <___vfprintf_internal_r+0x960>
 80037b4:	8c7ffc04 	addi	r17,r17,-16
 80037b8:	42000204 	addi	r8,r8,8
 80037bc:	e440110e 	bge	fp,r17,8003804 <___vfprintf_internal_r+0x9a4>
 80037c0:	18c00404 	addi	r3,r3,16
 80037c4:	10800044 	addi	r2,r2,1
 80037c8:	45000015 	stw	r20,0(r8)
 80037cc:	47000115 	stw	fp,4(r8)
 80037d0:	d8c02015 	stw	r3,128(sp)
 80037d4:	d8801f15 	stw	r2,124(sp)
 80037d8:	98bff60e 	bge	r19,r2,80037b4 <__alt_data_end+0xfc0037b4>
 80037dc:	d9801e04 	addi	r6,sp,120
 80037e0:	b80b883a 	mov	r5,r23
 80037e4:	8009883a 	mov	r4,r16
 80037e8:	800a6600 	call	800a660 <__sprint_r>
 80037ec:	103ea01e 	bne	r2,zero,8003270 <__alt_data_end+0xfc003270>
 80037f0:	8c7ffc04 	addi	r17,r17,-16
 80037f4:	d8c02017 	ldw	r3,128(sp)
 80037f8:	d8801f17 	ldw	r2,124(sp)
 80037fc:	da000404 	addi	r8,sp,16
 8003800:	e47fef16 	blt	fp,r17,80037c0 <__alt_data_end+0xfc0037c0>
 8003804:	9021883a 	mov	r16,r18
 8003808:	a825883a 	mov	r18,r21
 800380c:	b02b883a 	mov	r21,r22
 8003810:	882d883a 	mov	r22,r17
 8003814:	dc402a17 	ldw	r17,168(sp)
 8003818:	d9002c17 	ldw	r4,176(sp)
 800381c:	1d87883a 	add	r3,r3,r22
 8003820:	10800044 	addi	r2,r2,1
 8003824:	41000015 	stw	r4,0(r8)
 8003828:	45800115 	stw	r22,4(r8)
 800382c:	d8c02015 	stw	r3,128(sp)
 8003830:	d8801f15 	stw	r2,124(sp)
 8003834:	010001c4 	movi	r4,7
 8003838:	20821016 	blt	r4,r2,800407c <___vfprintf_internal_r+0x121c>
 800383c:	42000204 	addi	r8,r8,8
 8003840:	9080400c 	andi	r2,r18,256
 8003844:	10013a1e 	bne	r2,zero,8003d30 <___vfprintf_internal_r+0xed0>
 8003848:	d9402b17 	ldw	r5,172(sp)
 800384c:	d8801f17 	ldw	r2,124(sp)
 8003850:	44000015 	stw	r16,0(r8)
 8003854:	1947883a 	add	r3,r3,r5
 8003858:	10800044 	addi	r2,r2,1
 800385c:	41400115 	stw	r5,4(r8)
 8003860:	d8c02015 	stw	r3,128(sp)
 8003864:	d8801f15 	stw	r2,124(sp)
 8003868:	010001c4 	movi	r4,7
 800386c:	2081f516 	blt	r4,r2,8004044 <___vfprintf_internal_r+0x11e4>
 8003870:	42000204 	addi	r8,r8,8
 8003874:	9480010c 	andi	r18,r18,4
 8003878:	90003226 	beq	r18,zero,8003944 <___vfprintf_internal_r+0xae4>
 800387c:	d9403117 	ldw	r5,196(sp)
 8003880:	d8802917 	ldw	r2,164(sp)
 8003884:	28a1c83a 	sub	r16,r5,r2
 8003888:	04002e0e 	bge	zero,r16,8003944 <___vfprintf_internal_r+0xae4>
 800388c:	04400404 	movi	r17,16
 8003890:	d8801f17 	ldw	r2,124(sp)
 8003894:	8c04c40e 	bge	r17,r16,8004ba8 <___vfprintf_internal_r+0x1d48>
 8003898:	01420074 	movhi	r5,2049
 800389c:	29502c84 	addi	r5,r5,16562
 80038a0:	d9403515 	stw	r5,212(sp)
 80038a4:	048001c4 	movi	r18,7
 80038a8:	dcc02d17 	ldw	r19,180(sp)
 80038ac:	00000306 	br	80038bc <___vfprintf_internal_r+0xa5c>
 80038b0:	843ffc04 	addi	r16,r16,-16
 80038b4:	42000204 	addi	r8,r8,8
 80038b8:	8c00130e 	bge	r17,r16,8003908 <___vfprintf_internal_r+0xaa8>
 80038bc:	01020074 	movhi	r4,2049
 80038c0:	18c00404 	addi	r3,r3,16
 80038c4:	10800044 	addi	r2,r2,1
 80038c8:	21102c84 	addi	r4,r4,16562
 80038cc:	41000015 	stw	r4,0(r8)
 80038d0:	44400115 	stw	r17,4(r8)
 80038d4:	d8c02015 	stw	r3,128(sp)
 80038d8:	d8801f15 	stw	r2,124(sp)
 80038dc:	90bff40e 	bge	r18,r2,80038b0 <__alt_data_end+0xfc0038b0>
 80038e0:	d9801e04 	addi	r6,sp,120
 80038e4:	b80b883a 	mov	r5,r23
 80038e8:	9809883a 	mov	r4,r19
 80038ec:	800a6600 	call	800a660 <__sprint_r>
 80038f0:	103e5f1e 	bne	r2,zero,8003270 <__alt_data_end+0xfc003270>
 80038f4:	843ffc04 	addi	r16,r16,-16
 80038f8:	d8c02017 	ldw	r3,128(sp)
 80038fc:	d8801f17 	ldw	r2,124(sp)
 8003900:	da000404 	addi	r8,sp,16
 8003904:	8c3fed16 	blt	r17,r16,80038bc <__alt_data_end+0xfc0038bc>
 8003908:	d9403517 	ldw	r5,212(sp)
 800390c:	1c07883a 	add	r3,r3,r16
 8003910:	10800044 	addi	r2,r2,1
 8003914:	41400015 	stw	r5,0(r8)
 8003918:	44000115 	stw	r16,4(r8)
 800391c:	d8c02015 	stw	r3,128(sp)
 8003920:	d8801f15 	stw	r2,124(sp)
 8003924:	010001c4 	movi	r4,7
 8003928:	2080060e 	bge	r4,r2,8003944 <___vfprintf_internal_r+0xae4>
 800392c:	d9002d17 	ldw	r4,180(sp)
 8003930:	d9801e04 	addi	r6,sp,120
 8003934:	b80b883a 	mov	r5,r23
 8003938:	800a6600 	call	800a660 <__sprint_r>
 800393c:	103e4c1e 	bne	r2,zero,8003270 <__alt_data_end+0xfc003270>
 8003940:	d8c02017 	ldw	r3,128(sp)
 8003944:	d8803117 	ldw	r2,196(sp)
 8003948:	d9002917 	ldw	r4,164(sp)
 800394c:	1100010e 	bge	r2,r4,8003954 <___vfprintf_internal_r+0xaf4>
 8003950:	2005883a 	mov	r2,r4
 8003954:	d9402f17 	ldw	r5,188(sp)
 8003958:	288b883a 	add	r5,r5,r2
 800395c:	d9402f15 	stw	r5,188(sp)
 8003960:	1801c01e 	bne	r3,zero,8004064 <___vfprintf_internal_r+0x1204>
 8003964:	a8800007 	ldb	r2,0(r21)
 8003968:	d8001f15 	stw	zero,124(sp)
 800396c:	da000404 	addi	r8,sp,16
 8003970:	103d751e 	bne	r2,zero,8002f48 <__alt_data_end+0xfc002f48>
 8003974:	a823883a 	mov	r17,r21
 8003978:	003d8b06 	br	8002fa8 <__alt_data_end+0xfc002fa8>
 800397c:	8025883a 	mov	r18,r16
 8003980:	dc002903 	ldbu	r16,164(sp)
 8003984:	e011883a 	mov	r8,fp
 8003988:	84003fcc 	andi	r16,r16,255
 800398c:	8005e51e 	bne	r16,zero,8005124 <___vfprintf_internal_r+0x22c4>
 8003990:	94800414 	ori	r18,r18,16
 8003994:	9080080c 	andi	r2,r18,32
 8003998:	10022b26 	beq	r2,zero,8004248 <___vfprintf_internal_r+0x13e8>
 800399c:	d9002e17 	ldw	r4,184(sp)
 80039a0:	d9402a17 	ldw	r5,168(sp)
 80039a4:	d8002785 	stb	zero,158(sp)
 80039a8:	20c00204 	addi	r3,r4,8
 80039ac:	24c00017 	ldw	r19,0(r4)
 80039b0:	25800117 	ldw	r22,4(r4)
 80039b4:	28042e16 	blt	r5,zero,8004a70 <___vfprintf_internal_r+0x1c10>
 80039b8:	013fdfc4 	movi	r4,-129
 80039bc:	9d84b03a 	or	r2,r19,r22
 80039c0:	d8c02e15 	stw	r3,184(sp)
 80039c4:	9124703a 	and	r18,r18,r4
 80039c8:	0039883a 	mov	fp,zero
 80039cc:	103e801e 	bne	r2,zero,80033d0 <__alt_data_end+0xfc0033d0>
 80039d0:	d9002a17 	ldw	r4,168(sp)
 80039d4:	2002e01e 	bne	r4,zero,8004558 <___vfprintf_internal_r+0x16f8>
 80039d8:	d8002a15 	stw	zero,168(sp)
 80039dc:	d8002b15 	stw	zero,172(sp)
 80039e0:	dc001e04 	addi	r16,sp,120
 80039e4:	003ef506 	br	80035bc <__alt_data_end+0xfc0035bc>
 80039e8:	8025883a 	mov	r18,r16
 80039ec:	dc002903 	ldbu	r16,164(sp)
 80039f0:	e011883a 	mov	r8,fp
 80039f4:	84003fcc 	andi	r16,r16,255
 80039f8:	8005ba1e 	bne	r16,zero,80050e4 <___vfprintf_internal_r+0x2284>
 80039fc:	01020074 	movhi	r4,2049
 8003a00:	21101c04 	addi	r4,r4,16496
 8003a04:	d9003915 	stw	r4,228(sp)
 8003a08:	9080080c 	andi	r2,r18,32
 8003a0c:	10006126 	beq	r2,zero,8003b94 <___vfprintf_internal_r+0xd34>
 8003a10:	d9402e17 	ldw	r5,184(sp)
 8003a14:	2cc00017 	ldw	r19,0(r5)
 8003a18:	2d800117 	ldw	r22,4(r5)
 8003a1c:	29400204 	addi	r5,r5,8
 8003a20:	d9402e15 	stw	r5,184(sp)
 8003a24:	9080004c 	andi	r2,r18,1
 8003a28:	1001ac26 	beq	r2,zero,80040dc <___vfprintf_internal_r+0x127c>
 8003a2c:	9d84b03a 	or	r2,r19,r22
 8003a30:	10038526 	beq	r2,zero,8004848 <___vfprintf_internal_r+0x19e8>
 8003a34:	d8c02a17 	ldw	r3,168(sp)
 8003a38:	00800c04 	movi	r2,48
 8003a3c:	d8802705 	stb	r2,156(sp)
 8003a40:	dc402745 	stb	r17,157(sp)
 8003a44:	d8002785 	stb	zero,158(sp)
 8003a48:	90800094 	ori	r2,r18,2
 8003a4c:	18047916 	blt	r3,zero,8004c34 <___vfprintf_internal_r+0x1dd4>
 8003a50:	00bfdfc4 	movi	r2,-129
 8003a54:	90a4703a 	and	r18,r18,r2
 8003a58:	94800094 	ori	r18,r18,2
 8003a5c:	0039883a 	mov	fp,zero
 8003a60:	d9003917 	ldw	r4,228(sp)
 8003a64:	dc001e04 	addi	r16,sp,120
 8003a68:	988003cc 	andi	r2,r19,15
 8003a6c:	b006973a 	slli	r3,r22,28
 8003a70:	2085883a 	add	r2,r4,r2
 8003a74:	9826d13a 	srli	r19,r19,4
 8003a78:	10800003 	ldbu	r2,0(r2)
 8003a7c:	b02cd13a 	srli	r22,r22,4
 8003a80:	843fffc4 	addi	r16,r16,-1
 8003a84:	1ce6b03a 	or	r19,r3,r19
 8003a88:	80800005 	stb	r2,0(r16)
 8003a8c:	9d84b03a 	or	r2,r19,r22
 8003a90:	103ff51e 	bne	r2,zero,8003a68 <__alt_data_end+0xfc003a68>
 8003a94:	d8c02817 	ldw	r3,160(sp)
 8003a98:	1c07c83a 	sub	r3,r3,r16
 8003a9c:	d8c02b15 	stw	r3,172(sp)
 8003aa0:	003ec606 	br	80035bc <__alt_data_end+0xfc0035bc>
 8003aa4:	8025883a 	mov	r18,r16
 8003aa8:	dc002903 	ldbu	r16,164(sp)
 8003aac:	e011883a 	mov	r8,fp
 8003ab0:	84003fcc 	andi	r16,r16,255
 8003ab4:	803e9626 	beq	r16,zero,8003510 <__alt_data_end+0xfc003510>
 8003ab8:	d8c02b03 	ldbu	r3,172(sp)
 8003abc:	d8c02785 	stb	r3,158(sp)
 8003ac0:	003e9306 	br	8003510 <__alt_data_end+0xfc003510>
 8003ac4:	00c00044 	movi	r3,1
 8003ac8:	d8c02905 	stb	r3,164(sp)
 8003acc:	00c00ac4 	movi	r3,43
 8003ad0:	d8c02b05 	stb	r3,172(sp)
 8003ad4:	ac400007 	ldb	r17,0(r21)
 8003ad8:	003d4306 	br	8002fe8 <__alt_data_end+0xfc002fe8>
 8003adc:	84000814 	ori	r16,r16,32
 8003ae0:	ac400007 	ldb	r17,0(r21)
 8003ae4:	003d4006 	br	8002fe8 <__alt_data_end+0xfc002fe8>
 8003ae8:	d8802e17 	ldw	r2,184(sp)
 8003aec:	8025883a 	mov	r18,r16
 8003af0:	d8002785 	stb	zero,158(sp)
 8003af4:	14000017 	ldw	r16,0(r2)
 8003af8:	e011883a 	mov	r8,fp
 8003afc:	14c00104 	addi	r19,r2,4
 8003b00:	80042d26 	beq	r16,zero,8004bb8 <___vfprintf_internal_r+0x1d58>
 8003b04:	d8c02a17 	ldw	r3,168(sp)
 8003b08:	1803e416 	blt	r3,zero,8004a9c <___vfprintf_internal_r+0x1c3c>
 8003b0c:	180d883a 	mov	r6,r3
 8003b10:	000b883a 	mov	r5,zero
 8003b14:	8009883a 	mov	r4,r16
 8003b18:	df003d15 	stw	fp,244(sp)
 8003b1c:	80087980 	call	8008798 <memchr>
 8003b20:	da003d17 	ldw	r8,244(sp)
 8003b24:	10046826 	beq	r2,zero,8004cc8 <___vfprintf_internal_r+0x1e68>
 8003b28:	1405c83a 	sub	r2,r2,r16
 8003b2c:	d8802b15 	stw	r2,172(sp)
 8003b30:	1003e016 	blt	r2,zero,8004ab4 <___vfprintf_internal_r+0x1c54>
 8003b34:	df002783 	ldbu	fp,158(sp)
 8003b38:	d8802915 	stw	r2,164(sp)
 8003b3c:	dcc02e15 	stw	r19,184(sp)
 8003b40:	d8002a15 	stw	zero,168(sp)
 8003b44:	d8003215 	stw	zero,200(sp)
 8003b48:	003ea206 	br	80035d4 <__alt_data_end+0xfc0035d4>
 8003b4c:	8025883a 	mov	r18,r16
 8003b50:	dc002903 	ldbu	r16,164(sp)
 8003b54:	e011883a 	mov	r8,fp
 8003b58:	84003fcc 	andi	r16,r16,255
 8003b5c:	803f8d26 	beq	r16,zero,8003994 <__alt_data_end+0xfc003994>
 8003b60:	d8c02b03 	ldbu	r3,172(sp)
 8003b64:	d8c02785 	stb	r3,158(sp)
 8003b68:	003f8a06 	br	8003994 <__alt_data_end+0xfc003994>
 8003b6c:	8025883a 	mov	r18,r16
 8003b70:	dc002903 	ldbu	r16,164(sp)
 8003b74:	e011883a 	mov	r8,fp
 8003b78:	84003fcc 	andi	r16,r16,255
 8003b7c:	8005661e 	bne	r16,zero,8005118 <___vfprintf_internal_r+0x22b8>
 8003b80:	01020074 	movhi	r4,2049
 8003b84:	21102104 	addi	r4,r4,16516
 8003b88:	d9003915 	stw	r4,228(sp)
 8003b8c:	9080080c 	andi	r2,r18,32
 8003b90:	103f9f1e 	bne	r2,zero,8003a10 <__alt_data_end+0xfc003a10>
 8003b94:	9080040c 	andi	r2,r18,16
 8003b98:	1002eb26 	beq	r2,zero,8004748 <___vfprintf_internal_r+0x18e8>
 8003b9c:	d8802e17 	ldw	r2,184(sp)
 8003ba0:	002d883a 	mov	r22,zero
 8003ba4:	14c00017 	ldw	r19,0(r2)
 8003ba8:	10800104 	addi	r2,r2,4
 8003bac:	d8802e15 	stw	r2,184(sp)
 8003bb0:	003f9c06 	br	8003a24 <__alt_data_end+0xfc003a24>
 8003bb4:	d8802b07 	ldb	r2,172(sp)
 8003bb8:	1002e11e 	bne	r2,zero,8004740 <___vfprintf_internal_r+0x18e0>
 8003bbc:	00c00044 	movi	r3,1
 8003bc0:	d8c02905 	stb	r3,164(sp)
 8003bc4:	00c00804 	movi	r3,32
 8003bc8:	d8c02b05 	stb	r3,172(sp)
 8003bcc:	ac400007 	ldb	r17,0(r21)
 8003bd0:	003d0506 	br	8002fe8 <__alt_data_end+0xfc002fe8>
 8003bd4:	84000054 	ori	r16,r16,1
 8003bd8:	ac400007 	ldb	r17,0(r21)
 8003bdc:	003d0206 	br	8002fe8 <__alt_data_end+0xfc002fe8>
 8003be0:	8025883a 	mov	r18,r16
 8003be4:	dc002903 	ldbu	r16,164(sp)
 8003be8:	e011883a 	mov	r8,fp
 8003bec:	84003fcc 	andi	r16,r16,255
 8003bf0:	803de726 	beq	r16,zero,8003390 <__alt_data_end+0xfc003390>
 8003bf4:	d8c02b03 	ldbu	r3,172(sp)
 8003bf8:	d8c02785 	stb	r3,158(sp)
 8003bfc:	003de406 	br	8003390 <__alt_data_end+0xfc003390>
 8003c00:	84001014 	ori	r16,r16,64
 8003c04:	ac400007 	ldb	r17,0(r21)
 8003c08:	003cf706 	br	8002fe8 <__alt_data_end+0xfc002fe8>
 8003c0c:	ac400007 	ldb	r17,0(r21)
 8003c10:	00801b04 	movi	r2,108
 8003c14:	88838f26 	beq	r17,r2,8004a54 <___vfprintf_internal_r+0x1bf4>
 8003c18:	84000414 	ori	r16,r16,16
 8003c1c:	003cf206 	br	8002fe8 <__alt_data_end+0xfc002fe8>
 8003c20:	8025883a 	mov	r18,r16
 8003c24:	dc002903 	ldbu	r16,164(sp)
 8003c28:	e011883a 	mov	r8,fp
 8003c2c:	84003fcc 	andi	r16,r16,255
 8003c30:	80053f1e 	bne	r16,zero,8005130 <___vfprintf_internal_r+0x22d0>
 8003c34:	9080080c 	andi	r2,r18,32
 8003c38:	1002d226 	beq	r2,zero,8004784 <___vfprintf_internal_r+0x1924>
 8003c3c:	d9002e17 	ldw	r4,184(sp)
 8003c40:	d9402f17 	ldw	r5,188(sp)
 8003c44:	20800017 	ldw	r2,0(r4)
 8003c48:	2807d7fa 	srai	r3,r5,31
 8003c4c:	21000104 	addi	r4,r4,4
 8003c50:	d9002e15 	stw	r4,184(sp)
 8003c54:	11400015 	stw	r5,0(r2)
 8003c58:	10c00115 	stw	r3,4(r2)
 8003c5c:	003cb806 	br	8002f40 <__alt_data_end+0xfc002f40>
 8003c60:	d8c02e17 	ldw	r3,184(sp)
 8003c64:	d9002e17 	ldw	r4,184(sp)
 8003c68:	8025883a 	mov	r18,r16
 8003c6c:	18800017 	ldw	r2,0(r3)
 8003c70:	21000104 	addi	r4,r4,4
 8003c74:	00c00044 	movi	r3,1
 8003c78:	e011883a 	mov	r8,fp
 8003c7c:	d8c02915 	stw	r3,164(sp)
 8003c80:	d8002785 	stb	zero,158(sp)
 8003c84:	d8801405 	stb	r2,80(sp)
 8003c88:	d9002e15 	stw	r4,184(sp)
 8003c8c:	d8c02b15 	stw	r3,172(sp)
 8003c90:	d8002a15 	stw	zero,168(sp)
 8003c94:	d8003215 	stw	zero,200(sp)
 8003c98:	dc001404 	addi	r16,sp,80
 8003c9c:	0039883a 	mov	fp,zero
 8003ca0:	003e5306 	br	80035f0 <__alt_data_end+0xfc0035f0>
 8003ca4:	01020074 	movhi	r4,2049
 8003ca8:	21102104 	addi	r4,r4,16516
 8003cac:	0039883a 	mov	fp,zero
 8003cb0:	d9003915 	stw	r4,228(sp)
 8003cb4:	04401e04 	movi	r17,120
 8003cb8:	003f6906 	br	8003a60 <__alt_data_end+0xfc003a60>
 8003cbc:	8025883a 	mov	r18,r16
 8003cc0:	dc002903 	ldbu	r16,164(sp)
 8003cc4:	e011883a 	mov	r8,fp
 8003cc8:	84003fcc 	andi	r16,r16,255
 8003ccc:	8005081e 	bne	r16,zero,80050f0 <___vfprintf_internal_r+0x2290>
 8003cd0:	883d6126 	beq	r17,zero,8003258 <__alt_data_end+0xfc003258>
 8003cd4:	00c00044 	movi	r3,1
 8003cd8:	d8c02915 	stw	r3,164(sp)
 8003cdc:	dc401405 	stb	r17,80(sp)
 8003ce0:	d8002785 	stb	zero,158(sp)
 8003ce4:	003fe906 	br	8003c8c <__alt_data_end+0xfc003c8c>
 8003ce8:	01420074 	movhi	r5,2049
 8003cec:	29502104 	addi	r5,r5,16516
 8003cf0:	d9403915 	stw	r5,228(sp)
 8003cf4:	d8c02e15 	stw	r3,184(sp)
 8003cf8:	1025883a 	mov	r18,r2
 8003cfc:	04401e04 	movi	r17,120
 8003d00:	9d84b03a 	or	r2,r19,r22
 8003d04:	1000fc1e 	bne	r2,zero,80040f8 <___vfprintf_internal_r+0x1298>
 8003d08:	0039883a 	mov	fp,zero
 8003d0c:	00800084 	movi	r2,2
 8003d10:	10803fcc 	andi	r2,r2,255
 8003d14:	00c00044 	movi	r3,1
 8003d18:	10c20f26 	beq	r2,r3,8004558 <___vfprintf_internal_r+0x16f8>
 8003d1c:	00c00084 	movi	r3,2
 8003d20:	10fd3326 	beq	r2,r3,80031f0 <__alt_data_end+0xfc0031f0>
 8003d24:	003e0b06 	br	8003554 <__alt_data_end+0xfc003554>
 8003d28:	d8c02017 	ldw	r3,128(sp)
 8003d2c:	003e7106 	br	80036f4 <__alt_data_end+0xfc0036f4>
 8003d30:	00801944 	movi	r2,101
 8003d34:	14407e0e 	bge	r2,r17,8003f30 <___vfprintf_internal_r+0x10d0>
 8003d38:	d9003617 	ldw	r4,216(sp)
 8003d3c:	d9403817 	ldw	r5,224(sp)
 8003d40:	000d883a 	mov	r6,zero
 8003d44:	000f883a 	mov	r7,zero
 8003d48:	d8c03c15 	stw	r3,240(sp)
 8003d4c:	da003d15 	stw	r8,244(sp)
 8003d50:	800e3e40 	call	800e3e4 <__eqdf2>
 8003d54:	d8c03c17 	ldw	r3,240(sp)
 8003d58:	da003d17 	ldw	r8,244(sp)
 8003d5c:	1000f71e 	bne	r2,zero,800413c <___vfprintf_internal_r+0x12dc>
 8003d60:	d8801f17 	ldw	r2,124(sp)
 8003d64:	01020074 	movhi	r4,2049
 8003d68:	21102804 	addi	r4,r4,16544
 8003d6c:	18c00044 	addi	r3,r3,1
 8003d70:	10800044 	addi	r2,r2,1
 8003d74:	41000015 	stw	r4,0(r8)
 8003d78:	01000044 	movi	r4,1
 8003d7c:	41000115 	stw	r4,4(r8)
 8003d80:	d8c02015 	stw	r3,128(sp)
 8003d84:	d8801f15 	stw	r2,124(sp)
 8003d88:	010001c4 	movi	r4,7
 8003d8c:	2082b816 	blt	r4,r2,8004870 <___vfprintf_internal_r+0x1a10>
 8003d90:	42000204 	addi	r8,r8,8
 8003d94:	d8802617 	ldw	r2,152(sp)
 8003d98:	d9403317 	ldw	r5,204(sp)
 8003d9c:	11400216 	blt	r2,r5,8003da8 <___vfprintf_internal_r+0xf48>
 8003da0:	9080004c 	andi	r2,r18,1
 8003da4:	103eb326 	beq	r2,zero,8003874 <__alt_data_end+0xfc003874>
 8003da8:	d8803717 	ldw	r2,220(sp)
 8003dac:	d9003417 	ldw	r4,208(sp)
 8003db0:	d9403717 	ldw	r5,220(sp)
 8003db4:	1887883a 	add	r3,r3,r2
 8003db8:	d8801f17 	ldw	r2,124(sp)
 8003dbc:	41000015 	stw	r4,0(r8)
 8003dc0:	41400115 	stw	r5,4(r8)
 8003dc4:	10800044 	addi	r2,r2,1
 8003dc8:	d8c02015 	stw	r3,128(sp)
 8003dcc:	d8801f15 	stw	r2,124(sp)
 8003dd0:	010001c4 	movi	r4,7
 8003dd4:	20832916 	blt	r4,r2,8004a7c <___vfprintf_internal_r+0x1c1c>
 8003dd8:	42000204 	addi	r8,r8,8
 8003ddc:	d8803317 	ldw	r2,204(sp)
 8003de0:	143fffc4 	addi	r16,r2,-1
 8003de4:	043ea30e 	bge	zero,r16,8003874 <__alt_data_end+0xfc003874>
 8003de8:	04400404 	movi	r17,16
 8003dec:	d8801f17 	ldw	r2,124(sp)
 8003df0:	8c00880e 	bge	r17,r16,8004014 <___vfprintf_internal_r+0x11b4>
 8003df4:	01420074 	movhi	r5,2049
 8003df8:	29502884 	addi	r5,r5,16546
 8003dfc:	d9402c15 	stw	r5,176(sp)
 8003e00:	058001c4 	movi	r22,7
 8003e04:	dcc02d17 	ldw	r19,180(sp)
 8003e08:	00000306 	br	8003e18 <___vfprintf_internal_r+0xfb8>
 8003e0c:	42000204 	addi	r8,r8,8
 8003e10:	843ffc04 	addi	r16,r16,-16
 8003e14:	8c00820e 	bge	r17,r16,8004020 <___vfprintf_internal_r+0x11c0>
 8003e18:	18c00404 	addi	r3,r3,16
 8003e1c:	10800044 	addi	r2,r2,1
 8003e20:	45000015 	stw	r20,0(r8)
 8003e24:	44400115 	stw	r17,4(r8)
 8003e28:	d8c02015 	stw	r3,128(sp)
 8003e2c:	d8801f15 	stw	r2,124(sp)
 8003e30:	b0bff60e 	bge	r22,r2,8003e0c <__alt_data_end+0xfc003e0c>
 8003e34:	d9801e04 	addi	r6,sp,120
 8003e38:	b80b883a 	mov	r5,r23
 8003e3c:	9809883a 	mov	r4,r19
 8003e40:	800a6600 	call	800a660 <__sprint_r>
 8003e44:	103d0a1e 	bne	r2,zero,8003270 <__alt_data_end+0xfc003270>
 8003e48:	d8c02017 	ldw	r3,128(sp)
 8003e4c:	d8801f17 	ldw	r2,124(sp)
 8003e50:	da000404 	addi	r8,sp,16
 8003e54:	003fee06 	br	8003e10 <__alt_data_end+0xfc003e10>
 8003e58:	d9403117 	ldw	r5,196(sp)
 8003e5c:	d8802917 	ldw	r2,164(sp)
 8003e60:	28adc83a 	sub	r22,r5,r2
 8003e64:	05be410e 	bge	zero,r22,800376c <__alt_data_end+0xfc00376c>
 8003e68:	07000404 	movi	fp,16
 8003e6c:	d8801f17 	ldw	r2,124(sp)
 8003e70:	e5838f0e 	bge	fp,r22,8004cb0 <___vfprintf_internal_r+0x1e50>
 8003e74:	01420074 	movhi	r5,2049
 8003e78:	29502884 	addi	r5,r5,16546
 8003e7c:	dc403015 	stw	r17,192(sp)
 8003e80:	d9402c15 	stw	r5,176(sp)
 8003e84:	b023883a 	mov	r17,r22
 8003e88:	04c001c4 	movi	r19,7
 8003e8c:	a82d883a 	mov	r22,r21
 8003e90:	902b883a 	mov	r21,r18
 8003e94:	8025883a 	mov	r18,r16
 8003e98:	dc002d17 	ldw	r16,180(sp)
 8003e9c:	00000306 	br	8003eac <___vfprintf_internal_r+0x104c>
 8003ea0:	8c7ffc04 	addi	r17,r17,-16
 8003ea4:	42000204 	addi	r8,r8,8
 8003ea8:	e440110e 	bge	fp,r17,8003ef0 <___vfprintf_internal_r+0x1090>
 8003eac:	18c00404 	addi	r3,r3,16
 8003eb0:	10800044 	addi	r2,r2,1
 8003eb4:	45000015 	stw	r20,0(r8)
 8003eb8:	47000115 	stw	fp,4(r8)
 8003ebc:	d8c02015 	stw	r3,128(sp)
 8003ec0:	d8801f15 	stw	r2,124(sp)
 8003ec4:	98bff60e 	bge	r19,r2,8003ea0 <__alt_data_end+0xfc003ea0>
 8003ec8:	d9801e04 	addi	r6,sp,120
 8003ecc:	b80b883a 	mov	r5,r23
 8003ed0:	8009883a 	mov	r4,r16
 8003ed4:	800a6600 	call	800a660 <__sprint_r>
 8003ed8:	103ce51e 	bne	r2,zero,8003270 <__alt_data_end+0xfc003270>
 8003edc:	8c7ffc04 	addi	r17,r17,-16
 8003ee0:	d8c02017 	ldw	r3,128(sp)
 8003ee4:	d8801f17 	ldw	r2,124(sp)
 8003ee8:	da000404 	addi	r8,sp,16
 8003eec:	e47fef16 	blt	fp,r17,8003eac <__alt_data_end+0xfc003eac>
 8003ef0:	9021883a 	mov	r16,r18
 8003ef4:	a825883a 	mov	r18,r21
 8003ef8:	b02b883a 	mov	r21,r22
 8003efc:	882d883a 	mov	r22,r17
 8003f00:	dc403017 	ldw	r17,192(sp)
 8003f04:	d9002c17 	ldw	r4,176(sp)
 8003f08:	1d87883a 	add	r3,r3,r22
 8003f0c:	10800044 	addi	r2,r2,1
 8003f10:	41000015 	stw	r4,0(r8)
 8003f14:	45800115 	stw	r22,4(r8)
 8003f18:	d8c02015 	stw	r3,128(sp)
 8003f1c:	d8801f15 	stw	r2,124(sp)
 8003f20:	010001c4 	movi	r4,7
 8003f24:	20818e16 	blt	r4,r2,8004560 <___vfprintf_internal_r+0x1700>
 8003f28:	42000204 	addi	r8,r8,8
 8003f2c:	003e0f06 	br	800376c <__alt_data_end+0xfc00376c>
 8003f30:	d9403317 	ldw	r5,204(sp)
 8003f34:	00800044 	movi	r2,1
 8003f38:	18c00044 	addi	r3,r3,1
 8003f3c:	1141530e 	bge	r2,r5,800448c <___vfprintf_internal_r+0x162c>
 8003f40:	dc401f17 	ldw	r17,124(sp)
 8003f44:	00800044 	movi	r2,1
 8003f48:	40800115 	stw	r2,4(r8)
 8003f4c:	8c400044 	addi	r17,r17,1
 8003f50:	44000015 	stw	r16,0(r8)
 8003f54:	d8c02015 	stw	r3,128(sp)
 8003f58:	dc401f15 	stw	r17,124(sp)
 8003f5c:	008001c4 	movi	r2,7
 8003f60:	14416b16 	blt	r2,r17,8004510 <___vfprintf_internal_r+0x16b0>
 8003f64:	42000204 	addi	r8,r8,8
 8003f68:	d8803717 	ldw	r2,220(sp)
 8003f6c:	d9003417 	ldw	r4,208(sp)
 8003f70:	8c400044 	addi	r17,r17,1
 8003f74:	10c7883a 	add	r3,r2,r3
 8003f78:	40800115 	stw	r2,4(r8)
 8003f7c:	41000015 	stw	r4,0(r8)
 8003f80:	d8c02015 	stw	r3,128(sp)
 8003f84:	dc401f15 	stw	r17,124(sp)
 8003f88:	008001c4 	movi	r2,7
 8003f8c:	14416916 	blt	r2,r17,8004534 <___vfprintf_internal_r+0x16d4>
 8003f90:	45800204 	addi	r22,r8,8
 8003f94:	d9003617 	ldw	r4,216(sp)
 8003f98:	d9403817 	ldw	r5,224(sp)
 8003f9c:	000d883a 	mov	r6,zero
 8003fa0:	000f883a 	mov	r7,zero
 8003fa4:	d8c03c15 	stw	r3,240(sp)
 8003fa8:	800e3e40 	call	800e3e4 <__eqdf2>
 8003fac:	d8c03c17 	ldw	r3,240(sp)
 8003fb0:	1000bc26 	beq	r2,zero,80042a4 <___vfprintf_internal_r+0x1444>
 8003fb4:	d9403317 	ldw	r5,204(sp)
 8003fb8:	84000044 	addi	r16,r16,1
 8003fbc:	8c400044 	addi	r17,r17,1
 8003fc0:	28bfffc4 	addi	r2,r5,-1
 8003fc4:	1887883a 	add	r3,r3,r2
 8003fc8:	b0800115 	stw	r2,4(r22)
 8003fcc:	b4000015 	stw	r16,0(r22)
 8003fd0:	d8c02015 	stw	r3,128(sp)
 8003fd4:	dc401f15 	stw	r17,124(sp)
 8003fd8:	008001c4 	movi	r2,7
 8003fdc:	14414316 	blt	r2,r17,80044ec <___vfprintf_internal_r+0x168c>
 8003fe0:	b5800204 	addi	r22,r22,8
 8003fe4:	d9003a17 	ldw	r4,232(sp)
 8003fe8:	df0022c4 	addi	fp,sp,139
 8003fec:	8c400044 	addi	r17,r17,1
 8003ff0:	20c7883a 	add	r3,r4,r3
 8003ff4:	b7000015 	stw	fp,0(r22)
 8003ff8:	b1000115 	stw	r4,4(r22)
 8003ffc:	d8c02015 	stw	r3,128(sp)
 8004000:	dc401f15 	stw	r17,124(sp)
 8004004:	008001c4 	movi	r2,7
 8004008:	14400e16 	blt	r2,r17,8004044 <___vfprintf_internal_r+0x11e4>
 800400c:	b2000204 	addi	r8,r22,8
 8004010:	003e1806 	br	8003874 <__alt_data_end+0xfc003874>
 8004014:	01020074 	movhi	r4,2049
 8004018:	21102884 	addi	r4,r4,16546
 800401c:	d9002c15 	stw	r4,176(sp)
 8004020:	d9002c17 	ldw	r4,176(sp)
 8004024:	1c07883a 	add	r3,r3,r16
 8004028:	44000115 	stw	r16,4(r8)
 800402c:	41000015 	stw	r4,0(r8)
 8004030:	10800044 	addi	r2,r2,1
 8004034:	d8c02015 	stw	r3,128(sp)
 8004038:	d8801f15 	stw	r2,124(sp)
 800403c:	010001c4 	movi	r4,7
 8004040:	20be0b0e 	bge	r4,r2,8003870 <__alt_data_end+0xfc003870>
 8004044:	d9002d17 	ldw	r4,180(sp)
 8004048:	d9801e04 	addi	r6,sp,120
 800404c:	b80b883a 	mov	r5,r23
 8004050:	800a6600 	call	800a660 <__sprint_r>
 8004054:	103c861e 	bne	r2,zero,8003270 <__alt_data_end+0xfc003270>
 8004058:	d8c02017 	ldw	r3,128(sp)
 800405c:	da000404 	addi	r8,sp,16
 8004060:	003e0406 	br	8003874 <__alt_data_end+0xfc003874>
 8004064:	d9002d17 	ldw	r4,180(sp)
 8004068:	d9801e04 	addi	r6,sp,120
 800406c:	b80b883a 	mov	r5,r23
 8004070:	800a6600 	call	800a660 <__sprint_r>
 8004074:	103e3b26 	beq	r2,zero,8003964 <__alt_data_end+0xfc003964>
 8004078:	003c7d06 	br	8003270 <__alt_data_end+0xfc003270>
 800407c:	d9002d17 	ldw	r4,180(sp)
 8004080:	d9801e04 	addi	r6,sp,120
 8004084:	b80b883a 	mov	r5,r23
 8004088:	800a6600 	call	800a660 <__sprint_r>
 800408c:	103c781e 	bne	r2,zero,8003270 <__alt_data_end+0xfc003270>
 8004090:	d8c02017 	ldw	r3,128(sp)
 8004094:	da000404 	addi	r8,sp,16
 8004098:	003de906 	br	8003840 <__alt_data_end+0xfc003840>
 800409c:	d9002d17 	ldw	r4,180(sp)
 80040a0:	d9801e04 	addi	r6,sp,120
 80040a4:	b80b883a 	mov	r5,r23
 80040a8:	800a6600 	call	800a660 <__sprint_r>
 80040ac:	103c701e 	bne	r2,zero,8003270 <__alt_data_end+0xfc003270>
 80040b0:	d8c02017 	ldw	r3,128(sp)
 80040b4:	da000404 	addi	r8,sp,16
 80040b8:	003d9b06 	br	8003728 <__alt_data_end+0xfc003728>
 80040bc:	d9002d17 	ldw	r4,180(sp)
 80040c0:	d9801e04 	addi	r6,sp,120
 80040c4:	b80b883a 	mov	r5,r23
 80040c8:	800a6600 	call	800a660 <__sprint_r>
 80040cc:	103c681e 	bne	r2,zero,8003270 <__alt_data_end+0xfc003270>
 80040d0:	d8c02017 	ldw	r3,128(sp)
 80040d4:	da000404 	addi	r8,sp,16
 80040d8:	003da106 	br	8003760 <__alt_data_end+0xfc003760>
 80040dc:	d9402a17 	ldw	r5,168(sp)
 80040e0:	d8002785 	stb	zero,158(sp)
 80040e4:	283f0616 	blt	r5,zero,8003d00 <__alt_data_end+0xfc003d00>
 80040e8:	00ffdfc4 	movi	r3,-129
 80040ec:	9d84b03a 	or	r2,r19,r22
 80040f0:	90e4703a 	and	r18,r18,r3
 80040f4:	103c3b26 	beq	r2,zero,80031e4 <__alt_data_end+0xfc0031e4>
 80040f8:	0039883a 	mov	fp,zero
 80040fc:	003e5806 	br	8003a60 <__alt_data_end+0xfc003a60>
 8004100:	9080040c 	andi	r2,r18,16
 8004104:	1001b326 	beq	r2,zero,80047d4 <___vfprintf_internal_r+0x1974>
 8004108:	d8c02e17 	ldw	r3,184(sp)
 800410c:	d9002a17 	ldw	r4,168(sp)
 8004110:	d8002785 	stb	zero,158(sp)
 8004114:	18800104 	addi	r2,r3,4
 8004118:	1cc00017 	ldw	r19,0(r3)
 800411c:	002d883a 	mov	r22,zero
 8004120:	2001b516 	blt	r4,zero,80047f8 <___vfprintf_internal_r+0x1998>
 8004124:	00ffdfc4 	movi	r3,-129
 8004128:	d8802e15 	stw	r2,184(sp)
 800412c:	90e4703a 	and	r18,r18,r3
 8004130:	983d0526 	beq	r19,zero,8003548 <__alt_data_end+0xfc003548>
 8004134:	0039883a 	mov	fp,zero
 8004138:	003d0806 	br	800355c <__alt_data_end+0xfc00355c>
 800413c:	dc402617 	ldw	r17,152(sp)
 8004140:	0441d30e 	bge	zero,r17,8004890 <___vfprintf_internal_r+0x1a30>
 8004144:	dc403217 	ldw	r17,200(sp)
 8004148:	d8803317 	ldw	r2,204(sp)
 800414c:	1440010e 	bge	r2,r17,8004154 <___vfprintf_internal_r+0x12f4>
 8004150:	1023883a 	mov	r17,r2
 8004154:	04400a0e 	bge	zero,r17,8004180 <___vfprintf_internal_r+0x1320>
 8004158:	d8801f17 	ldw	r2,124(sp)
 800415c:	1c47883a 	add	r3,r3,r17
 8004160:	44000015 	stw	r16,0(r8)
 8004164:	10800044 	addi	r2,r2,1
 8004168:	44400115 	stw	r17,4(r8)
 800416c:	d8c02015 	stw	r3,128(sp)
 8004170:	d8801f15 	stw	r2,124(sp)
 8004174:	010001c4 	movi	r4,7
 8004178:	20826516 	blt	r4,r2,8004b10 <___vfprintf_internal_r+0x1cb0>
 800417c:	42000204 	addi	r8,r8,8
 8004180:	88026116 	blt	r17,zero,8004b08 <___vfprintf_internal_r+0x1ca8>
 8004184:	d9003217 	ldw	r4,200(sp)
 8004188:	2463c83a 	sub	r17,r4,r17
 800418c:	04407b0e 	bge	zero,r17,800437c <___vfprintf_internal_r+0x151c>
 8004190:	05800404 	movi	r22,16
 8004194:	d8801f17 	ldw	r2,124(sp)
 8004198:	b4419d0e 	bge	r22,r17,8004810 <___vfprintf_internal_r+0x19b0>
 800419c:	01020074 	movhi	r4,2049
 80041a0:	21102884 	addi	r4,r4,16546
 80041a4:	d9002c15 	stw	r4,176(sp)
 80041a8:	070001c4 	movi	fp,7
 80041ac:	dcc02d17 	ldw	r19,180(sp)
 80041b0:	00000306 	br	80041c0 <___vfprintf_internal_r+0x1360>
 80041b4:	42000204 	addi	r8,r8,8
 80041b8:	8c7ffc04 	addi	r17,r17,-16
 80041bc:	b441970e 	bge	r22,r17,800481c <___vfprintf_internal_r+0x19bc>
 80041c0:	18c00404 	addi	r3,r3,16
 80041c4:	10800044 	addi	r2,r2,1
 80041c8:	45000015 	stw	r20,0(r8)
 80041cc:	45800115 	stw	r22,4(r8)
 80041d0:	d8c02015 	stw	r3,128(sp)
 80041d4:	d8801f15 	stw	r2,124(sp)
 80041d8:	e0bff60e 	bge	fp,r2,80041b4 <__alt_data_end+0xfc0041b4>
 80041dc:	d9801e04 	addi	r6,sp,120
 80041e0:	b80b883a 	mov	r5,r23
 80041e4:	9809883a 	mov	r4,r19
 80041e8:	800a6600 	call	800a660 <__sprint_r>
 80041ec:	103c201e 	bne	r2,zero,8003270 <__alt_data_end+0xfc003270>
 80041f0:	d8c02017 	ldw	r3,128(sp)
 80041f4:	d8801f17 	ldw	r2,124(sp)
 80041f8:	da000404 	addi	r8,sp,16
 80041fc:	003fee06 	br	80041b8 <__alt_data_end+0xfc0041b8>
 8004200:	d9002d17 	ldw	r4,180(sp)
 8004204:	d9801e04 	addi	r6,sp,120
 8004208:	b80b883a 	mov	r5,r23
 800420c:	800a6600 	call	800a660 <__sprint_r>
 8004210:	103c171e 	bne	r2,zero,8003270 <__alt_data_end+0xfc003270>
 8004214:	d8c02017 	ldw	r3,128(sp)
 8004218:	df002787 	ldb	fp,158(sp)
 800421c:	da000404 	addi	r8,sp,16
 8004220:	003d3406 	br	80036f4 <__alt_data_end+0xfc0036f4>
 8004224:	9080040c 	andi	r2,r18,16
 8004228:	10016126 	beq	r2,zero,80047b0 <___vfprintf_internal_r+0x1950>
 800422c:	d9402e17 	ldw	r5,184(sp)
 8004230:	2cc00017 	ldw	r19,0(r5)
 8004234:	29400104 	addi	r5,r5,4
 8004238:	d9402e15 	stw	r5,184(sp)
 800423c:	982dd7fa 	srai	r22,r19,31
 8004240:	b005883a 	mov	r2,r22
 8004244:	003c5a06 	br	80033b0 <__alt_data_end+0xfc0033b0>
 8004248:	9080040c 	andi	r2,r18,16
 800424c:	10003526 	beq	r2,zero,8004324 <___vfprintf_internal_r+0x14c4>
 8004250:	d8c02e17 	ldw	r3,184(sp)
 8004254:	d9002a17 	ldw	r4,168(sp)
 8004258:	d8002785 	stb	zero,158(sp)
 800425c:	18800104 	addi	r2,r3,4
 8004260:	1cc00017 	ldw	r19,0(r3)
 8004264:	002d883a 	mov	r22,zero
 8004268:	20003716 	blt	r4,zero,8004348 <___vfprintf_internal_r+0x14e8>
 800426c:	00ffdfc4 	movi	r3,-129
 8004270:	d8802e15 	stw	r2,184(sp)
 8004274:	90e4703a 	and	r18,r18,r3
 8004278:	0039883a 	mov	fp,zero
 800427c:	983dd426 	beq	r19,zero,80039d0 <__alt_data_end+0xfc0039d0>
 8004280:	00800244 	movi	r2,9
 8004284:	14fc5336 	bltu	r2,r19,80033d4 <__alt_data_end+0xfc0033d4>
 8004288:	d8c02817 	ldw	r3,160(sp)
 800428c:	dc001dc4 	addi	r16,sp,119
 8004290:	9cc00c04 	addi	r19,r19,48
 8004294:	1c07c83a 	sub	r3,r3,r16
 8004298:	dcc01dc5 	stb	r19,119(sp)
 800429c:	d8c02b15 	stw	r3,172(sp)
 80042a0:	003cc606 	br	80035bc <__alt_data_end+0xfc0035bc>
 80042a4:	d8803317 	ldw	r2,204(sp)
 80042a8:	143fffc4 	addi	r16,r2,-1
 80042ac:	043f4d0e 	bge	zero,r16,8003fe4 <__alt_data_end+0xfc003fe4>
 80042b0:	07000404 	movi	fp,16
 80042b4:	e400810e 	bge	fp,r16,80044bc <___vfprintf_internal_r+0x165c>
 80042b8:	01420074 	movhi	r5,2049
 80042bc:	29502884 	addi	r5,r5,16546
 80042c0:	d9402c15 	stw	r5,176(sp)
 80042c4:	01c001c4 	movi	r7,7
 80042c8:	dcc02d17 	ldw	r19,180(sp)
 80042cc:	00000306 	br	80042dc <___vfprintf_internal_r+0x147c>
 80042d0:	b5800204 	addi	r22,r22,8
 80042d4:	843ffc04 	addi	r16,r16,-16
 80042d8:	e4007b0e 	bge	fp,r16,80044c8 <___vfprintf_internal_r+0x1668>
 80042dc:	18c00404 	addi	r3,r3,16
 80042e0:	8c400044 	addi	r17,r17,1
 80042e4:	b5000015 	stw	r20,0(r22)
 80042e8:	b7000115 	stw	fp,4(r22)
 80042ec:	d8c02015 	stw	r3,128(sp)
 80042f0:	dc401f15 	stw	r17,124(sp)
 80042f4:	3c7ff60e 	bge	r7,r17,80042d0 <__alt_data_end+0xfc0042d0>
 80042f8:	d9801e04 	addi	r6,sp,120
 80042fc:	b80b883a 	mov	r5,r23
 8004300:	9809883a 	mov	r4,r19
 8004304:	d9c03c15 	stw	r7,240(sp)
 8004308:	800a6600 	call	800a660 <__sprint_r>
 800430c:	d9c03c17 	ldw	r7,240(sp)
 8004310:	103bd71e 	bne	r2,zero,8003270 <__alt_data_end+0xfc003270>
 8004314:	d8c02017 	ldw	r3,128(sp)
 8004318:	dc401f17 	ldw	r17,124(sp)
 800431c:	dd800404 	addi	r22,sp,16
 8004320:	003fec06 	br	80042d4 <__alt_data_end+0xfc0042d4>
 8004324:	9080100c 	andi	r2,r18,64
 8004328:	d8002785 	stb	zero,158(sp)
 800432c:	10010e26 	beq	r2,zero,8004768 <___vfprintf_internal_r+0x1908>
 8004330:	d9402e17 	ldw	r5,184(sp)
 8004334:	d8c02a17 	ldw	r3,168(sp)
 8004338:	002d883a 	mov	r22,zero
 800433c:	28800104 	addi	r2,r5,4
 8004340:	2cc0000b 	ldhu	r19,0(r5)
 8004344:	183fc90e 	bge	r3,zero,800426c <__alt_data_end+0xfc00426c>
 8004348:	d8802e15 	stw	r2,184(sp)
 800434c:	0039883a 	mov	fp,zero
 8004350:	9d84b03a 	or	r2,r19,r22
 8004354:	103c1e1e 	bne	r2,zero,80033d0 <__alt_data_end+0xfc0033d0>
 8004358:	00800044 	movi	r2,1
 800435c:	003e6c06 	br	8003d10 <__alt_data_end+0xfc003d10>
 8004360:	d9002d17 	ldw	r4,180(sp)
 8004364:	d9801e04 	addi	r6,sp,120
 8004368:	b80b883a 	mov	r5,r23
 800436c:	800a6600 	call	800a660 <__sprint_r>
 8004370:	103bbf1e 	bne	r2,zero,8003270 <__alt_data_end+0xfc003270>
 8004374:	d8c02017 	ldw	r3,128(sp)
 8004378:	da000404 	addi	r8,sp,16
 800437c:	d9003217 	ldw	r4,200(sp)
 8004380:	d8802617 	ldw	r2,152(sp)
 8004384:	d9403317 	ldw	r5,204(sp)
 8004388:	8123883a 	add	r17,r16,r4
 800438c:	11400216 	blt	r2,r5,8004398 <___vfprintf_internal_r+0x1538>
 8004390:	9100004c 	andi	r4,r18,1
 8004394:	20000d26 	beq	r4,zero,80043cc <___vfprintf_internal_r+0x156c>
 8004398:	d9003717 	ldw	r4,220(sp)
 800439c:	d9403417 	ldw	r5,208(sp)
 80043a0:	1907883a 	add	r3,r3,r4
 80043a4:	d9001f17 	ldw	r4,124(sp)
 80043a8:	41400015 	stw	r5,0(r8)
 80043ac:	d9403717 	ldw	r5,220(sp)
 80043b0:	21000044 	addi	r4,r4,1
 80043b4:	d8c02015 	stw	r3,128(sp)
 80043b8:	41400115 	stw	r5,4(r8)
 80043bc:	d9001f15 	stw	r4,124(sp)
 80043c0:	014001c4 	movi	r5,7
 80043c4:	2901e816 	blt	r5,r4,8004b68 <___vfprintf_internal_r+0x1d08>
 80043c8:	42000204 	addi	r8,r8,8
 80043cc:	d9003317 	ldw	r4,204(sp)
 80043d0:	8121883a 	add	r16,r16,r4
 80043d4:	2085c83a 	sub	r2,r4,r2
 80043d8:	8461c83a 	sub	r16,r16,r17
 80043dc:	1400010e 	bge	r2,r16,80043e4 <___vfprintf_internal_r+0x1584>
 80043e0:	1021883a 	mov	r16,r2
 80043e4:	04000a0e 	bge	zero,r16,8004410 <___vfprintf_internal_r+0x15b0>
 80043e8:	d9001f17 	ldw	r4,124(sp)
 80043ec:	1c07883a 	add	r3,r3,r16
 80043f0:	44400015 	stw	r17,0(r8)
 80043f4:	21000044 	addi	r4,r4,1
 80043f8:	44000115 	stw	r16,4(r8)
 80043fc:	d8c02015 	stw	r3,128(sp)
 8004400:	d9001f15 	stw	r4,124(sp)
 8004404:	014001c4 	movi	r5,7
 8004408:	2901fb16 	blt	r5,r4,8004bf8 <___vfprintf_internal_r+0x1d98>
 800440c:	42000204 	addi	r8,r8,8
 8004410:	8001f716 	blt	r16,zero,8004bf0 <___vfprintf_internal_r+0x1d90>
 8004414:	1421c83a 	sub	r16,r2,r16
 8004418:	043d160e 	bge	zero,r16,8003874 <__alt_data_end+0xfc003874>
 800441c:	04400404 	movi	r17,16
 8004420:	d8801f17 	ldw	r2,124(sp)
 8004424:	8c3efb0e 	bge	r17,r16,8004014 <__alt_data_end+0xfc004014>
 8004428:	01420074 	movhi	r5,2049
 800442c:	29502884 	addi	r5,r5,16546
 8004430:	d9402c15 	stw	r5,176(sp)
 8004434:	058001c4 	movi	r22,7
 8004438:	dcc02d17 	ldw	r19,180(sp)
 800443c:	00000306 	br	800444c <___vfprintf_internal_r+0x15ec>
 8004440:	42000204 	addi	r8,r8,8
 8004444:	843ffc04 	addi	r16,r16,-16
 8004448:	8c3ef50e 	bge	r17,r16,8004020 <__alt_data_end+0xfc004020>
 800444c:	18c00404 	addi	r3,r3,16
 8004450:	10800044 	addi	r2,r2,1
 8004454:	45000015 	stw	r20,0(r8)
 8004458:	44400115 	stw	r17,4(r8)
 800445c:	d8c02015 	stw	r3,128(sp)
 8004460:	d8801f15 	stw	r2,124(sp)
 8004464:	b0bff60e 	bge	r22,r2,8004440 <__alt_data_end+0xfc004440>
 8004468:	d9801e04 	addi	r6,sp,120
 800446c:	b80b883a 	mov	r5,r23
 8004470:	9809883a 	mov	r4,r19
 8004474:	800a6600 	call	800a660 <__sprint_r>
 8004478:	103b7d1e 	bne	r2,zero,8003270 <__alt_data_end+0xfc003270>
 800447c:	d8c02017 	ldw	r3,128(sp)
 8004480:	d8801f17 	ldw	r2,124(sp)
 8004484:	da000404 	addi	r8,sp,16
 8004488:	003fee06 	br	8004444 <__alt_data_end+0xfc004444>
 800448c:	9088703a 	and	r4,r18,r2
 8004490:	203eab1e 	bne	r4,zero,8003f40 <__alt_data_end+0xfc003f40>
 8004494:	dc401f17 	ldw	r17,124(sp)
 8004498:	40800115 	stw	r2,4(r8)
 800449c:	44000015 	stw	r16,0(r8)
 80044a0:	8c400044 	addi	r17,r17,1
 80044a4:	d8c02015 	stw	r3,128(sp)
 80044a8:	dc401f15 	stw	r17,124(sp)
 80044ac:	008001c4 	movi	r2,7
 80044b0:	14400e16 	blt	r2,r17,80044ec <___vfprintf_internal_r+0x168c>
 80044b4:	45800204 	addi	r22,r8,8
 80044b8:	003eca06 	br	8003fe4 <__alt_data_end+0xfc003fe4>
 80044bc:	01020074 	movhi	r4,2049
 80044c0:	21102884 	addi	r4,r4,16546
 80044c4:	d9002c15 	stw	r4,176(sp)
 80044c8:	d8802c17 	ldw	r2,176(sp)
 80044cc:	1c07883a 	add	r3,r3,r16
 80044d0:	8c400044 	addi	r17,r17,1
 80044d4:	b0800015 	stw	r2,0(r22)
 80044d8:	b4000115 	stw	r16,4(r22)
 80044dc:	d8c02015 	stw	r3,128(sp)
 80044e0:	dc401f15 	stw	r17,124(sp)
 80044e4:	008001c4 	movi	r2,7
 80044e8:	147ebd0e 	bge	r2,r17,8003fe0 <__alt_data_end+0xfc003fe0>
 80044ec:	d9002d17 	ldw	r4,180(sp)
 80044f0:	d9801e04 	addi	r6,sp,120
 80044f4:	b80b883a 	mov	r5,r23
 80044f8:	800a6600 	call	800a660 <__sprint_r>
 80044fc:	103b5c1e 	bne	r2,zero,8003270 <__alt_data_end+0xfc003270>
 8004500:	d8c02017 	ldw	r3,128(sp)
 8004504:	dc401f17 	ldw	r17,124(sp)
 8004508:	dd800404 	addi	r22,sp,16
 800450c:	003eb506 	br	8003fe4 <__alt_data_end+0xfc003fe4>
 8004510:	d9002d17 	ldw	r4,180(sp)
 8004514:	d9801e04 	addi	r6,sp,120
 8004518:	b80b883a 	mov	r5,r23
 800451c:	800a6600 	call	800a660 <__sprint_r>
 8004520:	103b531e 	bne	r2,zero,8003270 <__alt_data_end+0xfc003270>
 8004524:	d8c02017 	ldw	r3,128(sp)
 8004528:	dc401f17 	ldw	r17,124(sp)
 800452c:	da000404 	addi	r8,sp,16
 8004530:	003e8d06 	br	8003f68 <__alt_data_end+0xfc003f68>
 8004534:	d9002d17 	ldw	r4,180(sp)
 8004538:	d9801e04 	addi	r6,sp,120
 800453c:	b80b883a 	mov	r5,r23
 8004540:	800a6600 	call	800a660 <__sprint_r>
